gpasm-1.7.0_beta1 (Jan 22 2015)_divuint.asm       2015-1-22  23:34:24          PAGE  1


LOC  OBJECT CODE     LINE SOURCE TEXT
  VALUE

                      00001 ;--------------------------------------------------------
                      00002 ; File Created by SN-SDCC : ANSI-C Compiler
                      00003 ; Version 0.0.4 (Jan 22 2015) (Linux)
                      00004 ; This file was generated Thu Jan 22 23:34:24 2015
                      00005 ;--------------------------------------------------------
                      00006 ; MC3X port for the RISC core
                      00007 ;--------------------------------------------------------
                      00008 ;       .file   "../libsdcc/_divuint.c"
                      00009         list    p=31p11
                      00010         radix dec
                      00011         include "mc31p11.inc"
                      00001                 LIST
                      00002 ;mc31p11.inc    Standard Header File, Version 1.00 by Sinomcu
                      00176                 LIST
                      00012 ;--------------------------------------------------------
                      00013 ; external declarations
                      00014 ;--------------------------------------------------------
                      00015 
                      00016         extern STK06
                      00017         extern STK05
                      00018         extern STK04
                      00019         extern STK03
                      00020         extern STK02
                      00021         extern STK01
                      00022         extern STK00
                      00023 ;--------------------------------------------------------
                      00024 ; global declarations
                      00025 ;--------------------------------------------------------
                      00026         global  __divuint
                      00027 
                      00028 ;--------------------------------------------------------
                      00029 ; global definitions
                      00030 ;--------------------------------------------------------
                      00031 ;--------------------------------------------------------
                      00032 ; absolute symbol definitions
                      00033 ;--------------------------------------------------------
                      00034 ;--------------------------------------------------------
                      00035 ; compiler-defined variables
                      00036 ;--------------------------------------------------------
                      00037 UDL__divuint_0  udata
0000                  00038 r0x1001 res     1
0000                  00039 r0x1000 res     1
0001                  00040 r0x1003 res     1
0001                  00041 r0x1002 res     1
0002                  00042 r0x1004 res     1
0002                  00043 r0x1005 res     1
0003                  00044 r0x1006 res     1
0003                  00045 r0x1007 res     1
0004                  00046 r0x1009 res     1
                      00047 ;--------------------------------------------------------
                      00048 ; initialized data
                      00049 ;--------------------------------------------------------
                      00050 ;--------------------------------------------------------
                      00051 ; overlayable items in internal ram 
                      00052 ;--------------------------------------------------------
                      00053 ;       udata_ovr
                      00054 ;--------------------------------------------------------
                      00055 ; code
                      00056 ;--------------------------------------------------------
                      00057 code__divuint   code
                      00058 ;***
                      00059 ;  pBlock Stats: dbName = C
                      00060 ;***
                      00061 ;entry:  __divuint      ;Function start
                      00062 ; 2 exit points
                      00063 ;has an exit
                      00064 ;15 compiler assigned registers:
                      00065 ;   r0x1000
                      00066 ;   STK00
                      00067 ;   r0x1001
                      00068 ;   STK01
                      00069 ;   r0x1002
                      00070 ;   STK02
                      00071 ;   r0x1003
                      00072 ;   r0x1004
                      00073 ;   r0x1005
                      00074 ;   r0x1006
                      00075 ;   r0x1007
                      00076 ;   r0x1008
                      00077 ;   r0x1009
                      00078 ;   r0x100A
                      00079 ;   r0x100B
                      00080 ;; Starting pCode block
                      00081 ;;[ICODE] ../libsdcc/_divuint.c:30:  _entry($12) :
                      00082 ;;[ICODE] ../libsdcc/_divuint.c:30:     proc __divuint [k1 lr0:0 so:0]{ ia0 a2p0 re0 rm0 nos0 ru0 dp0}{unsigned-int function ( unsigned-int fixed, unsigned-int fixed) fixed}
0000                  00083 __divuint       ;Function start
                      00084 ; 2 exit points
                      00085 ;;[ICODE] ../libsdcc/_divuint.c:30: iTemp0 [k2 lr3:33 so:0]{ ia0 a2p0 re1 rm0 nos0 ru0 dp0}{unsigned-int fixed}{ sir@ __divuint_a_1_1}[r0x1000 r0x1001 ] = recv __divuint [k1 lr0:0 so:0]{ ia0 a2p0 re0 rm0 nos0 ru0 dp0}{unsigned-int function ( unsigned-int fixed, unsigned-int fixed) fixed}
                      00086 ;       .line   30; "../libsdcc/_divuint.c"     _divuint (unsigned int a, unsigned int b)
0000   0AC0           00087         MOVRA   r0x1000
0001   0B00           00088         MOVAR   STK00
0002   0AC0           00089         MOVRA   r0x1001
                      00090 ;;[ICODE] ../libsdcc/_divuint.c:30: iTemp1 [k4 lr4:33 so:0]{ ia0 a2p0 re1 rm0 nos0 ru0 dp0}{unsigned-int fixed}{ sir@ __divuint_b_1_1}[r0x1002 r0x1003 ] = recv __divuint [k1 lr0:0 so:0]{ ia0 a2p0 re0 rm0 nos0 ru0 dp0}{unsigned-int function ( unsigned-int fixed, unsigned-int fixed) fixed}
0003   0B00           00091         MOVAR   STK01
0004   0AC0           00092         MOVRA   r0x1002
0005   0B00           00093         MOVAR   STK02
0006   0AC0           00094         MOVRA   r0x1003
                      00095 ;;[ICODE] ../libsdcc/_divuint.c:32:     iTemp2 [k6 lr5:35 so:0]{ ia0 a2p0 re1 rm0 nos0 ru0 dp0}{unsigned-int fixed}{ sir@ __divuint_result_1_2}[r0x1004 r0x1005 ] := 0x0 {unsigned-int literal}
                      00096 ;       .line   32; "../libsdcc/_divuint.c"     unsigned int result = 0;
0007   0EC0           00097         CLRR    r0x1004
0008   0EC0           00098         CLRR    r0x1005
                      00099 ;;[ICODE] ../libsdcc/_divuint.c:33:     iTemp3 [k8 lr6:33 so:0]{ ia0 a2p0 re1 rm0 nos0 ru0 dp0}{unsigned-int fixed}{ sir@ __divuint_mask_1_2}[r0x1006 r0x1007 ] := 0x1 {unsigned-int literal}
                      00100 ;       .line   33; "../libsdcc/_divuint.c"     unsigned int mask = 0x01;
0009   0401           00101         MOVAI   0x01
000A   0AC0           00102         MOVRA   r0x1006
000B   0EC0           00103         CLRR    r0x1007
                      00104 ;;[ICODE] ../libsdcc/_divuint.c:36:     if iTemp1 [k4 lr4:33 so:0]{ ia0 a2p0 re1 rm0 nos0 ru0 dp0}{unsigned-int fixed}{ sir@ __divuint_b_1_1}[r0x1002 r0x1003 ] != 0 goto _whilecontinue_0($3)
                      00105 ;       .line   36; "../libsdcc/_divuint.c"     if (!b) return (unsigned int)-1;
000C   0B00           00106         MOVAR   r0x1003
000D   0B80           00107         ORAR    r0x1002
000E   1C83           00108         JBSET   STATUS,2
000F   1400           00109         GOTO    _00107_DS_
                      00110 ;;[ICODE] ../libsdcc/_divuint.c:36:     ret 0xffff {unsigned-int literal}
0010   04FF           00111         MOVAI   0xff
0011   0AC0           00112         MOVRA   STK00
0012   04FF           00113         MOVAI   0xff
0013   1400           00114         GOTO    _00115_DS_
                      00115 ;;[ICODE] ../libsdcc/_divuint.c:40:  _whilecontinue_0($3) :
                      00116 ;;[ICODE] ../libsdcc/_divuint.c:40:     iTemp4 [k10 lr11:12 so:0]{ ia0 a2p0 re0 rm0 nos0 ru0 dp0}{unsigned-long-int register}[r0x1008 r0x1009 r0x100A r0x100B ] = (unsigned-long-int register)iTemp1 [k4 lr4:33 so:0]{ ia0 a2p0 re1 rm0 nos0 ru0 dp0}{unsigned-int fixed}{ sir@ __divuint_b_1_1}[r0x1002 r0x1003 ]
0014                  00117 _00107_DS_
                      00118 ;       .line   40; "../libsdcc/_divuint.c"     while (!(b & (1UL << (8*sizeof(unsigned int)-1)))) {
0014   0B00           00119         MOVAR   r0x1003
                      00120 ;;1     MOVRA   r0x1008
0015   0B00           00121         MOVAR   r0x1002
0016   0AC0           00122         MOVRA   r0x1009
                      00123 ;;1     CLRR    r0x100A
                      00124 ;;1     CLRR    r0x100B
                      00125 ;;[ICODE] ../libsdcc/_divuint.c:40:     iTemp5 [k11 lr12:13 so:0]{ ia0 a2p0 re0 rm0 nos0 ru0 dp0}{unsigned-long-int register} = iTemp4 [k10 lr11:12 so:0]{ ia0 a2p0 re0 rm0 nos0 ru0 dp0}{unsigned-long-int register}[r0x1008 r0x1009 r0x100A r0x100B ] & 0x8000 {unsigned-long-int literal}
0017   1FC0           00126         JBCLR   r0x1009,7
0018   1400           00127         GOTO    _00112_DS_
                      00128 ;;[ICODE] ../libsdcc/_divuint.c:40:     if iTemp5 [k11 lr12:13 so:0]{ ia0 a2p0 re0 rm0 nos0 ru0 dp0}{unsigned-long-int register} != 0 goto _whilecontinue_1($8)
                      00129 ;;[ICODE] ../libsdcc/_divuint.c:41:     iTemp1 [k4 lr4:33 so:0]{ ia0 a2p0 re1 rm0 nos0 ru0 dp0}{unsigned-int fixed}{ sir@ __divuint_b_1_1}[r0x1002 r0x1003 ] = iTemp1 [k4 lr4:33 so:0]{ ia0 a2p0 re1 rm0 nos0 ru0 dp0}{unsigned-int fixed}{ sir@ __divuint_b_1_1}[r0x1002 r0x1003 ] << 0x1 {const-unsigned-char literal}
                      00130 ;       .line   41; "../libsdcc/_divuint.c"     b <<= 1;
0019   1A03           00131         BCLR    STATUS,0
001A   0A40           00132         RLR     r0x1003
001B   0A40           00133         RLR     r0x1002
                      00134 ;;[ICODE] ../libsdcc/_divuint.c:42:     iTemp3 [k8 lr6:33 so:0]{ ia0 a2p0 re1 rm0 nos0 ru0 dp0}{unsigned-int fixed}{ sir@ __divuint_mask_1_2}[r0x1006 r0x1007 ] = iTemp3 [k8 lr6:33 so:0]{ ia0 a2p0 re1 rm0 nos0 ru0 dp0}{unsigned-int fixed}{ sir@ __divuint_mask_1_2}[r0x1006 r0x1007 ] << 0x1 {const-unsigned-char literal}
                      00135 ;       .line   42; "../libsdcc/_divuint.c"     mask <<= 1;
001C   1A03           00136         BCLR    STATUS,0
001D   0A40           00137         RLR     r0x1006
001E   0A40           00138         RLR     r0x1007
                      00139 ;;[ICODE] ../libsdcc/_divuint.c:42:      goto _whilecontinue_0($3)
001F   1400           00140         GOTO    _00107_DS_
                      00141 ;;[ICODE] ../libsdcc/_divuint.c:47:  _whilecontinue_1($8) :
                      00142 ;;[ICODE] ../libsdcc/_divuint.c:47:     if iTemp3 [k8 lr6:33 so:0]{ ia0 a2p0 re1 rm0 nos0 ru0 dp0}{unsigned-int fixed}{ sir@ __divuint_mask_1_2}[r0x1006 r0x1007 ] == 0 goto _whilebreak_1($10)
0020                  00143 _00112_DS_
                      00144 ;       .line   47; "../libsdcc/_divuint.c"     while (mask) {
0020   0B00           00145         MOVAR   r0x1006
0021   0B80           00146         ORAR    r0x1007
0022   1E83           00147         JBCLR   STATUS,2
0023   1400           00148         GOTO    _00114_DS_
                      00149 ;;[ICODE] ../libsdcc/_divuint.c:48:     iTemp8 [k14 lr22:23 so:0]{ ia0 a2p0 re0 rm0 nos0 ru0 dp0}{char fixed} = iTemp0 [k2 lr3:33 so:0]{ ia0 a2p0 re1 rm0 nos0 ru0 dp0}{unsigned-int fixed}{ sir@ __divuint_a_1_1}[r0x1000 r0x1001 ] < iTemp1 [k4 lr4:33 so:0]{ ia0 a2p0 re1 rm0 nos0 ru0 dp0}{unsigned-int fixed}{ sir@ __divuint_b_1_1}[r0x1002 r0x1003 ]
                      00150 ;       .line   48; "../libsdcc/_divuint.c"     if (a >= b) {
0024   0B00           00151         MOVAR   r0x1002
0025   0900           00152         RSUBAR  r0x1000
0026   1C83           00153         JBSET   STATUS,2
0027   1400           00154         GOTO    _00129_DS_
0028   0B00           00155         MOVAR   r0x1003
0029   0900           00156         RSUBAR  r0x1001
002A                  00157 _00129_DS_
002A   1C03           00158         JBSET   STATUS,0
002B   1400           00159         GOTO    _00111_DS_
                      00160 ;;genSkipc:3246: created from rifx:0xbffcd3c0
                      00161 ;;[ICODE] ../libsdcc/_divuint.c:48:     if iTemp8 [k14 lr22:23 so:0]{ ia0 a2p0 re0 rm0 nos0 ru0 dp0}{char fixed} != 0 goto _iffalse_1($7)
                      00162 ;;[ICODE] ../libsdcc/_divuint.c:49:     iTemp2 [k6 lr5:35 so:0]{ ia0 a2p0 re1 rm0 nos0 ru0 dp0}{unsigned-int fixed}{ sir@ __divuint_result_1_2}[r0x1004 r0x1005 ] = iTemp2 [k6 lr5:35 so:0]{ ia0 a2p0 re1 rm0 nos0 ru0 dp0}{unsigned-int fixed}{ sir@ __divuint_result_1_2}[r0x1004 r0x1005 ] + iTemp3 [k8 lr6:33 so:0]{ ia0 a2p0 re1 rm0 nos0 ru0 dp0}{unsigned-int fixed}{ sir@ __divuint_mask_1_2}[r0x1006 r0x1007 ]
                      00163 ;       .line   49; "../libsdcc/_divuint.c"     result += mask;
002C   0B00           00164         MOVAR   r0x1006
002D   0FC0           00165         ADDRA   r0x1004
002E   0B00           00166         MOVAR   r0x1007
002F   1E03           00167         JBCLR   STATUS,0
0030   0C00           00168         JZAR    r0x1007
0031   0FC0           00169         ADDRA   r0x1005
                      00170 ;;[ICODE] ../libsdcc/_divuint.c:50:     iTemp0 [k2 lr3:33 so:0]{ ia0 a2p0 re1 rm0 nos0 ru0 dp0}{unsigned-int fixed}{ sir@ __divuint_a_1_1}[r0x1000 r0x1001 ] = iTemp0 [k2 lr3:33 so:0]{ ia0 a2p0 re1 rm0 nos0 ru0 dp0}{unsigned-int fixed}{ sir@ __divuint_a_1_1}[r0x1000 r0x1001 ] - iTemp1 [k4 lr4:33 so:0]{ ia0 a2p0 re1 rm0 nos0 ru0 dp0}{unsigned-int fixed}{ sir@ __divuint_b_1_1}[r0x1002 r0x1003 ]
                      00171 ;       .line   50; "../libsdcc/_divuint.c"     a -= b;
0032   0B00           00172         MOVAR   r0x1003
0033   0940           00173         RSUBRA  r0x1001
0034   0B00           00174         MOVAR   r0x1002
0035   1C03           00175         JBSET   STATUS,0
0036   0C00           00176         JZAR    r0x1002
0037   0940           00177         RSUBRA  r0x1000
                      00178 ;;[ICODE] ../libsdcc/_divuint.c:50:  _iffalse_1($7) :
                      00179 ;;[ICODE] ../libsdcc/_divuint.c:52:     iTemp1 [k4 lr4:33 so:0]{ ia0 a2p0 re1 rm0 nos0 ru0 dp0}{unsigned-int fixed}{ sir@ __divuint_b_1_1}[r0x1002 r0x1003 ] = iTemp1 [k4 lr4:33 so:0]{ ia0 a2p0 re1 rm0 nos0 ru0 dp0}{unsigned-int fixed}{ sir@ __divuint_b_1_1}[r0x1002 r0x1003 ] >> 0x1 {const-unsigned-char literal}
                      00180 ;;shiftRight_Left2ResultLit:5278: shCount=1, size=2, sign=0, same=1, offr=0
0038                  00181 _00111_DS_
                      00182 ;       .line   52; "../libsdcc/_divuint.c"     b >>= 1;
0038   1A03           00183         BCLR    STATUS,0
0039   09C0           00184         RRR     r0x1002
003A   09C0           00185         RRR     r0x1003
                      00186 ;;[ICODE] ../libsdcc/_divuint.c:53:     iTemp3 [k8 lr6:33 so:0]{ ia0 a2p0 re1 rm0 nos0 ru0 dp0}{unsigned-int fixed}{ sir@ __divuint_mask_1_2}[r0x1006 r0x1007 ] = iTemp3 [k8 lr6:33 so:0]{ ia0 a2p0 re1 rm0 nos0 ru0 dp0}{unsigned-int fixed}{ sir@ __divuint_mask_1_2}[r0x1006 r0x1007 ] >> 0x1 {const-unsigned-char literal}
                      00187 ;;shiftRight_Left2ResultLit:5278: shCount=1, size=2, sign=0, same=1, offr=0
                      00188 ;       .line   53; "../libsdcc/_divuint.c"     mask >>= 1;
003B   1A03           00189         BCLR    STATUS,0
003C   09C0           00190         RRR     r0x1007
003D   09C0           00191         RRR     r0x1006
                      00192 ;;[ICODE] ../libsdcc/_divuint.c:53:      goto _whilecontinue_1($8)
003E   1400           00193         GOTO    _00112_DS_
                      00194 ;;[ICODE] ../libsdcc/_divuint.c:53:  _whilebreak_1($10) :
                      00195 ;;[ICODE] ../libsdcc/_divuint.c:56:     ret iTemp2 [k6 lr5:35 so:0]{ ia0 a2p0 re1 rm0 nos0 ru0 dp0}{unsigned-int fixed}{ sir@ __divuint_result_1_2}[r0x1004 r0x1005 ]
003F                  00196 _00114_DS_
                      00197 ;       .line   56; "../libsdcc/_divuint.c"     return result;
003F   0B00           00198         MOVAR   r0x1004
0040   0AC0           00199         MOVRA   STK00
0041   0B00           00200         MOVAR   r0x1005
                      00201 ;;[ICODE] ../libsdcc/_divuint.c:56:  _return($11) :
                      00202 ;;[ICODE] ../libsdcc/_divuint.c:56:     eproc __divuint [k1 lr0:0 so:0]{ ia0 a2p0 re0 rm0 nos0 ru0 dp0}{unsigned-int function ( unsigned-int fixed, unsigned-int fixed) fixed}
0042                  00203 _00115_DS_
0042   000C           00204         RETURN  
                      00205 ; exit point of __divuint
                      00206 
                      00207 
                      00208 ;       code size estimation:
                      00209 ;          67+    0 =    67 instructions (  134 byte)
                      00210 
                      00211         end
gpasm-1.7.0_beta1 (Jan 22 2015)_divuint.asm       2015-1-22  23:34:24          PAGE  2


SYMBOL TABLE
  LABEL                             VALUE

C                                 00000000
DC                                00000001
DKW                               0000000F
DKWE                              00000007
DKWP0                             0000000A
DKWP00                            00000000
DKWP01                            00000001
DKWP02                            00000002
DKWP03                            00000003
DKWP04                            00000004
DKWP05                            00000005
DKWP1                             0000000E
DKWP10                            00000000
DKWP11                            00000001
DKWP12                            00000002
DKWP13                            00000003
DKWP14                            00000004
DKWP15                            00000005
DKWP16                            00000006
FSR                               00000001
GIE                               00000007
INDF                              00000000
INT0IE                            00000002
INT0IF                            00000002
INT1IE                            00000003
INT1IF                            00000003
INTECON                           00000005
INTFLAG                           00000006
IOP0                              00000007
IOP00                             00000000
IOP01                             00000001
IOP02                             00000002
IOP03                             00000003
IOP04                             00000004
IOP05                             00000005
IOP06                             00000006
IOP1                              0000000B
IOP10                             00000000
IOP11                             00000001
IOP12                             00000002
IOP13                             00000003
IOP14                             00000004
IOP15                             00000005
IOP16                             00000006
MCR                               00000004
OEP0                              00000008
OEP00                             00000000
OEP01                             00000001
OEP02                             00000002
OEP03                             00000003
OEP04                             00000004
OEP05                             00000005
OEP06                             00000006
OEP1                              0000000C
OEP10                             00000000
OEP11                             00000001
OEP12                             00000002
OEP13                             00000003
OEP14                             00000004
OEP15                             00000005
OEP16                             00000006
PCL                               00000002
PD                                00000004
PUP0                              00000009
PUP00                             00000000
PUP01                             00000001
PUP02                             00000002
PUP03                             00000003
PUP04                             00000004
PUP05                             00000005
PUP06                             00000006
PUP1                              0000000D
PUP10                             00000000
PUP11                             00000001
PUP12                             00000002
PUP13                             00000003
PUP14                             00000004
PUP15                             00000005
PUP16                             00000006
RSEL                              00000006
STATUS                            00000003
STK00                             00000000
STK01                             00000000
STK02                             00000000
STK03                             00000000
STK04                             00000000
STK05                             00000000
STK06                             00000000
TO                                00000005
Z                                 00000002
_00107_DS_                        00000014
_00111_DS_                        00000038
_00112_DS_                        00000020
_00114_DS_                        0000003F
_00115_DS_                        00000042
_00129_DS_                        0000002A
_CONFIG0                          00008000
_CONFIG1                          00008001
_CP_ALL                           00000FFF
_FCPU_16X                         00001FFF
_FCPU_2X                          00001FF3
_FCPU_4X                          00001FF7
_FCPU_8X                          00001FFB
_WDT_ALWAYS_OFF                   00001FFC
_WDT_ALWAYS_ON                    00001FFF
_WDT_SLEEP_OFF                    00001FFD
__31P11                           00000001
__divuint                         00000000
r0x1000                           00000001
r0x1001                           00000000
r0x1002                           00000003
r0x1003                           00000002
r0x1004                           00000004
r0x1005                           00000005
r0x1006                           00000006
r0x1007                           00000007
r0x1009                           00000008

Errors   :     0
Warnings :     0 reported,     0 suppressed
Messages :     0 reported,     0 suppressed

