gpasm-1.3.0 (Jun 19 2013)    initSys.asm        2013-6-26  16:35:31          PAGE  1


LOC  OBJECT CODE     LINE SOURCE TEXT
  VALUE

                      00001 ;--------------------------------------------------------
                      00002 ; File Created by SDCC : free open source ANSI-C Compiler
                      00003 ; Version 0.0.2 (Jun 26 2013) (Linux)
                      00004 ; This file was generated Wed Jun 26 16:35:31 2013
                      00005 ;--------------------------------------------------------
                      00006 ; MC30 port for the 14-bit core
                      00007 ;--------------------------------------------------------
                      00008 ;       .file   "initSys.c"
                      00009         list    p=30p011
                      00010         radix dec
                      00011         include "mc30p011.inc"
                      00001                 LIST
                      00002 ;mc30p011.inc   Standard Header File, Version 1.00 by Sinomcu
                      00145                 LIST
                      00012 ;--------------------------------------------------------
                      00013 ; external declarations
                      00014 ;--------------------------------------------------------
                      00015         extern  _STATUSbits
                      00016         extern  _P0bits
                      00017         extern  _P1bits
                      00018         extern  _MCRbits
                      00019         extern  _KBIMbits
                      00020         extern  _PDCONbits
                      00021         extern  _ODCONbits
                      00022         extern  _PUCONbits
                      00023         extern  _INTECONbits
                      00024         extern  _INTFLAGbits
                      00025         extern  _DDR0bits
                      00026         extern  _DDR1bits
                      00027         extern  _TMCRbits
                      00028         extern  _T1CRbits
                      00029         extern  _KeyCnt
                      00030         extern  _T1s
                      00031         extern  _TRedCnt
                      00032         extern  _TRed
                      00033         extern  _TGreen
                      00034         extern  _TBlue
                      00035         extern  _TRedbak
                      00036         extern  _TGreenbak
                      00037         extern  _TBluebak
                      00038         extern  _IRTmr
                      00039         extern  _KeyCode
                      00040         extern  _Custom
                      00041         extern  _CustomRev
                      00042         extern  _IRCode1
                      00043         extern  _IRCodeRev1
                      00044         extern  _BitCnt
                      00045         extern  _LongIRCnt
                      00046         extern  _IRCnt
                      00047         extern  _Color
                      00048         extern  _Mode1Cnt
                      00049         extern  _delay
                      00050         extern  _Tmr
                      00051         extern  _TStop
                      00052         extern  _Step
                      00053         extern  _T40ms
                      00054         extern  _Dly100ms
                      00055         extern  _Mode2Cnt2
                      00056         extern  _Mode2Cnt3
                      00057         extern  _delay05ms
                      00058         extern  _Flag1
                      00059         extern  _Flag2
                      00060         extern  _INDF
                      00061         extern  _T0CNT
                      00062         extern  _PCL
                      00063         extern  _STATUS
                      00064         extern  _FSR
                      00065         extern  _P0
                      00066         extern  _P1
                      00067         extern  _MCR
                      00068         extern  _KBIM
                      00069         extern  _PCLATH
                      00070         extern  _PDCON
                      00071         extern  _ODCON
                      00072         extern  _PUCON
                      00073         extern  _INTECON
                      00074         extern  _INTFLAG
                      00075         extern  _T0CR
                      00076         extern  _DDR0
                      00077         extern  _DDR1
                      00078         extern  _TMCR
                      00079         extern  _T1CR
                      00080         extern  _T1CNT
                      00081         extern  _T1LOAD
                      00082         extern  _T1DATA
                      00083 
                      00084         extern PSAVE
                      00085         extern SSAVE
                      00086         extern WSAVE
                      00087         extern STK12
                      00088         extern STK11
                      00089         extern STK10
                      00090         extern STK09
                      00091         extern STK08
                      00092         extern STK07
                      00093         extern STK06
                      00094         extern STK05
                      00095         extern STK04
                      00096         extern STK03
                      00097         extern STK02
                      00098         extern STK01
                      00099         extern STK00
                      00100 ;--------------------------------------------------------
                      00101 ; global declarations
                      00102 ;--------------------------------------------------------
                      00103         global  _InitialSys
                      00104         global  _InitalRAM
                      00105 
                      00106 ;--------------------------------------------------------
                      00107 ; global definitions
                      00108 ;--------------------------------------------------------
                      00109 ;--------------------------------------------------------
                      00110 ; absolute symbol definitions
                      00111 ;--------------------------------------------------------
                      00112 ;--------------------------------------------------------
                      00113 ; compiler-defined variables
                      00114 ;--------------------------------------------------------
                      00115 ;--------------------------------------------------------
                      00116 ; initialized data
                      00117 ;--------------------------------------------------------
                      00118 ;--------------------------------------------------------
                      00119 ; overlayable items in internal ram 
                      00120 ;--------------------------------------------------------
                      00121 ;       udata_ovr
                      00122 ;--------------------------------------------------------
                      00123 ; code
                      00124 ;--------------------------------------------------------
                      00125 code_initSys    code
                      00126 ;***
                      00127 ;  pBlock Stats: dbName = C
                      00128 ;***
                      00129 ;entry:  _InitalRAM     ;Function start
                      00130 ; 2 exit points
                      00131 ;has an exit
                      00132 ;; Starting pCode block
0000                  00133 _InitalRAM      ;Function start
                      00134 ; 2 exit points
                      00135 ;       .line   59; "initSys.c" T1s = 250;
0000   0BFA           00136         MOVAI   0xfa
0001   1580           00137         MOVRA   _T1s
0002   000C           00138         RETURN  
                      00139 ; exit point of _InitalRAM
                      00140 
                      00141 ;***
                      00142 ;  pBlock Stats: dbName = C
                      00143 ;***
                      00144 ;entry:  _InitialSys    ;Function start
                      00145 ; 2 exit points
                      00146 ;has an exit
                      00147 ;; Starting pCode block
0003                  00148 _InitialSys     ;Function start
                      00149 ; 2 exit points
                      00150 ;       .line   10; "initSys.c" pRed = 1;
0003   3800           00151         BSET    _P1bits,0
                      00152 ;       .line   11; "initSys.c" pGreen = 1;
0004   3880           00153         BSET    _P1bits,1
                      00154 ;       .line   12; "initSys.c" pBlue = 1;
0005   3900           00155         BSET    _P1bits,2
                      00156 ;       .line   14; "initSys.c" DDR0 = 0;
0006   1D80           00157         CLRR    _DDR0
                      00158 ;       .line   15; "initSys.c" DDR1 = 0;
0007   1D80           00159         CLRR    _DDR1
                      00160 ;       .line   16; "initSys.c" DDR1 |= 0x08;
0008   3980           00161         BSET    _DDR1,3
                      00162 ;       .line   17; "initSys.c" PDCON = 0xFF;                    
0009   0BFF           00163         MOVAI   0xff
000A   1580           00164         MOVRA   _PDCON
                      00165 ;       .line   18; "initSys.c" PUCON = 0xFF;
000B   0BFF           00166         MOVAI   0xff
000C   1580           00167         MOVRA   _PUCON
                      00168 ;       .line   19; "initSys.c" ODCON = 0;
000D   1D80           00169         CLRR    _ODCON
                      00170 ;       .line   23; "initSys.c" T0CR = 1;
000E   0B01           00171         MOVAI   0x01
000F   1580           00172         MOVRA   _T0CR
                      00173 ;       .line   24; "initSys.c" T0CNT = CT0;
0010   0BF0           00174         MOVAI   0xf0
0011   1580           00175         MOVRA   _T0CNT
                      00176 ;       .line   25; "initSys.c" T0IE = 1;               //;开定时中断
0012   3800           00177         BSET    _INTECONbits,0
                      00178 ;       .line   31; "initSys.c" TMCR = 0;
0013   1D80           00179         CLRR    _TMCR
                      00180 ;       .line   32; "initSys.c" T1CR = 0x86;
0014   0B86           00181         MOVAI   0x86
0015   1580           00182         MOVRA   _T1CR
                      00183 ;       .line   33; "initSys.c" T1LOAD = 249;
0016   0BF9           00184         MOVAI   0xf9
0017   1580           00185         MOVRA   _T1LOAD
                      00186 ;       .line   34; "initSys.c" T1DATA = 0;
0018   1D80           00187         CLRR    _T1DATA
                      00188 ;       .line   37; "initSys.c" MCR = 0x80;                    
0019   0B80           00189         MOVAI   0x80
001A   1580           00190         MOVRA   _MCR
                      00191 ;       .line   39; "initSys.c" KBIM = 0;                      
001B   1D80           00192         CLRR    _KBIM
001C   000C           00193         RETURN  
                      00194 ; exit point of _InitialSys
                      00195 
                      00196 
                      00197 ;       code size estimation:
                      00198 ;          29+    0 =    29 instructions (   58 byte)
                      00199 
                      00200         end
gpasm-1.3.0 (Jun 19 2013)    initSys.asm        2013-6-26  16:35:31          PAGE  2


SYMBOL TABLE
  LABEL                             VALUE

BUZOUT                            00000005
C                                 00000000
DC                                00000001
DDR0                              00000045
DDR1                              00000046
EIS                               00000006
FSR                               00000004
GIE                               00000007
INDF                              00000000
INT0IE                            00000002
INT0IF                            00000002
INTECON                           0000000E
INTFLAG                           0000000F
KBIE                              00000001
KBIF                              00000001
KBIM                              00000009
MCR                               00000008
ODCON                             0000000C
P0                                00000005
P1                                00000006
PCL                               00000002
PCLATH                            0000000A
PD                                00000003
PDCON                             0000000B
PSAVE                             00000000
PUCON                             0000000D
PWMOUT                            00000006
RST                               00000007
SSAVE                             00000000
STATUS                            00000003
STK00                             00000000
STK01                             00000000
STK02                             00000000
STK03                             00000000
STK04                             00000000
STK05                             00000000
STK06                             00000000
STK07                             00000000
STK08                             00000000
STK09                             00000000
STK10                             00000000
STK11                             00000000
STK12                             00000000
T0CNT                             00000001
T0CR                              00000041
T0IE                              00000000
T0IF                              00000000
T1CNT                             0000004D
T1CR                              0000004C
T1DATA                            0000004F
T1IF                              00000000
T1LOAD                            0000004E
T1PR0                             00000000
T1PR1                             00000001
T1PR2                             00000002
T1PTS0                            00000003
T1PTS1                            00000004
T1lE                              00000001
TBS                               00000007
TMCR                              0000004B
TMR1EN                            00000007
TO                                00000004
WDTEN                             00000007
WSAVE                             00000000
Z                                 00000002
_BitCnt                           00000000
_CONFIG0                          00002000
_CONFIG1                          00002001
_CP_ALL                           00001FFF
_Color                            00000000
_Custom                           00000000
_CustomRev                        00000000
_DDR0                             00000000
_DDR0bits                         00000000
_DDR1                             00000000
_DDR1bits                         00000000
_Dly100ms                         00000000
_FCPU_2T                          00003F7F
_FCPU_4T                          00003FFF
_FSR                              00000000
_Flag1                            00000000
_Flag2                            00000000
_INDF                             00000000
_INTECON                          00000000
_INTECONbits                      00000000
_INTFLAG                          00000000
_INTFLAGbits                      00000000
_IRC_1M                           00003FCF
_IRC_2M                           00003FDF
_IRC_444K                         00003FAF
_IRC_4M                           00003FEF
_IRC_8M                           00003FFF
_IRCnt                            00000000
_IRCode1                          00000000
_IRCodeRev1                       00000000
_IRTmr                            00000000
_InitalRAM                        00000000
_InitialSys                       00000003
_KBIM                             00000000
_KBIMbits                         00000000
_KeyCnt                           00000000
_KeyCode                          00000000
_LongIRCnt                        00000000
_MCLR_OFF                         00003FF7
_MCLR_ON                          00003FFF
_MCR                              00000000
_MCRbits                          00000000
_Mode1Cnt                         00000000
_Mode2Cnt2                        00000000
_Mode2Cnt3                        00000000
_ODCON                            00000000
_ODCONbits                        00000000
_OSC_HXT                          00002FFF
_OSC_IRC                          000037FF
_OSC_IRC_RTC                      00003FFF
_OSC_LXT                          000027FF
_P0                               00000000
_P0bits                           00000000
_P1                               00000000
_P1bits                           00000000
_PCL                              00000000
_PCLATH                           00000000
_PDCON                            00000000
_PDCONbits                        00000000
_PUCON                            00000000
_PUCONbits                        00000000
_PWRT_OFF                         00003BFF
_PWRT_ON                          00003FFF
_RD_FROM_PIN                      00003FFF
_RD_FROM_REG                      00003EFF
_SMT_OFF                          00003FFF
_SMT_ON                           00003DFF
_STATUS                           00000000
_STATUSbits                       00000000
_Step                             00000000
_T0CNT                            00000000
_T0CR                             00000000
_T1CNT                            00000000
_T1CR                             00000000
_T1CRbits                         00000000
_T1DATA                           00000000
_T1LOAD                           00000000
_T1s                              00000000
_T40ms                            00000000
_TBlue                            00000000
_TBluebak                         00000000
_TGreen                           00000000
_TGreenbak                        00000000
_TMCR                             00000000
_TMCRbits                         00000000
_TRed                             00000000
_TRedCnt                          00000000
_TRedbak                          00000000
_TStop                            00000000
_TWRT_18MS                        00003FFF
_TWRT_288MS                       00003DFF
_TWRT_4P5MS                       00003EFF
_TWRT_72MS                        00003CFF
_Tmr                              00000000
_VBOR_15                          00003F78
_VBOR_18                          00003F79
_VBOR_20                          00003FFA
_VBOR_22                          00003FFB
_VBOR_24                          00003FFC
_VBOR_26                          00003FFD
_VBOR_30                          00003FFE
_VBOR_36                          00003FFF
_WDT_OFF                          000037FF
_WDT_ON                           00003FFF
__30P011                          00000001
_delay                            00000000
_delay05ms                        00000000

Errors   :     0
Warnings :     0 reported,     0 suppressed
Messages :     0 reported,     0 suppressed

