gpasm-1.7.0_beta1 (Jan 22 2015)_modulong.asm      2015-1-22  23:30:21          PAGE  1


LOC  OBJECT CODE     LINE SOURCE TEXT
  VALUE

                      00001 ;--------------------------------------------------------
                      00002 ; File Created by SN-SDCC : ANSI-C Compiler
                      00003 ; Version 0.0.4 (Jan 22 2015) (Linux)
                      00004 ; This file was generated Thu Jan 22 23:30:21 2015
                      00005 ;--------------------------------------------------------
                      00006 ; MC3X port for the RISC core
                      00007 ;--------------------------------------------------------
                      00008 ;       .file   "../libsdcc/_modulong.c"
                      00009         list    p=30p011
                      00010         radix dec
                      00011         include "mc30p011.inc"
                      00001                 LIST
                      00002 ;mc30p011.inc    Standard Header File, Version 1.00 by Sinomcu
                      00225                 LIST
                      00012 ;--------------------------------------------------------
                      00013 ; external declarations
                      00014 ;--------------------------------------------------------
                      00015 
                      00016         extern STK06
                      00017         extern STK05
                      00018         extern STK04
                      00019         extern STK03
                      00020         extern STK02
                      00021         extern STK01
                      00022         extern STK00
                      00023 ;--------------------------------------------------------
                      00024 ; global declarations
                      00025 ;--------------------------------------------------------
                      00026         global  __modulong
                      00027 
                      00028 ;--------------------------------------------------------
                      00029 ; global definitions
                      00030 ;--------------------------------------------------------
                      00031 ;--------------------------------------------------------
                      00032 ; absolute symbol definitions
                      00033 ;--------------------------------------------------------
                      00034 ;--------------------------------------------------------
                      00035 ; compiler-defined variables
                      00036 ;--------------------------------------------------------
                      00037 UDL__modulong_0 udata
0000                  00038 r0x1003 res     1
0000                  00039 r0x1002 res     1
0001                  00040 r0x1001 res     1
0001                  00041 r0x1000 res     1
0002                  00042 r0x1007 res     1
0002                  00043 r0x1006 res     1
0003                  00044 r0x1005 res     1
0003                  00045 r0x1004 res     1
0004                  00046 r0x1008 res     1
                      00047 ;--------------------------------------------------------
                      00048 ; initialized data
                      00049 ;--------------------------------------------------------
                      00050 ;--------------------------------------------------------
                      00051 ; overlayable items in internal ram 
                      00052 ;--------------------------------------------------------
                      00053 ;       udata_ovr
                      00054 ;--------------------------------------------------------
                      00055 ; code
                      00056 ;--------------------------------------------------------
                      00057 code__modulong  code
                      00058 ;***
                      00059 ;  pBlock Stats: dbName = C
                      00060 ;***
                      00061 ;entry:  __modulong     ;Function start
                      00062 ; 2 exit points
                      00063 ;has an exit
                      00064 ;16 compiler assigned registers:
                      00065 ;   r0x1000
                      00066 ;   STK00
                      00067 ;   r0x1001
                      00068 ;   STK01
                      00069 ;   r0x1002
                      00070 ;   STK02
                      00071 ;   r0x1003
                      00072 ;   STK03
                      00073 ;   r0x1004
                      00074 ;   STK04
                      00075 ;   r0x1005
                      00076 ;   STK05
                      00077 ;   r0x1006
                      00078 ;   STK06
                      00079 ;   r0x1007
                      00080 ;   r0x1008
                      00081 ;; Starting pCode block
                      00082 ;;[ICODE] ../libsdcc/_modulong.c:30:  _entry($12) :
                      00083 ;;[ICODE] ../libsdcc/_modulong.c:30:    proc __modulong [k1 lr0:0 so:0]{ ia0 a2p0 re0 rm0 nos0 ru0 dp0}{unsigned-long-int function ( unsigned-long-int fixed, unsigned-long-int fixed) fixed}
0000                  00084 __modulong      ;Function start
                      00085 ; 2 exit points
                      00086 ;;[ICODE] ../libsdcc/_modulong.c:30: iTemp0 [k2 lr3:32 so:0]{ ia0 a2p0 re1 rm0 nos0 ru0 dp0}{unsigned-long-int fixed}{ sir@ __modulong_a_1_1}[r0x1000 r0x1001 r0x1002 r0x1003 ] = recv __modulong [k1 lr0:0 so:0]{ ia0 a2p0 re0 rm0 nos0 ru0 dp0}{unsigned-long-int function ( unsigned-long-int fixed, unsigned-long-int fixed) fixed}
                      00087 ;       .line   30; "../libsdcc/_modulong.c"    _modulong (unsigned long a, unsigned long b)
0000   1580           00088         MOVRA   r0x1000
0001   1600           00089         MOVAR   STK00
0002   1580           00090         MOVRA   r0x1001
0003   1600           00091         MOVAR   STK01
0004   1580           00092         MOVRA   r0x1002
0005   1600           00093         MOVAR   STK02
0006   1580           00094         MOVRA   r0x1003
                      00095 ;;[ICODE] ../libsdcc/_modulong.c:30: iTemp1 [k4 lr4:30 so:0]{ ia0 a2p0 re1 rm0 nos0 ru0 dp0}{unsigned-long-int fixed}{ sir@ __modulong_b_1_1}[r0x1004 r0x1005 r0x1006 r0x1007 ] = recv __modulong [k1 lr0:0 so:0]{ ia0 a2p0 re0 rm0 nos0 ru0 dp0}{unsigned-long-int function ( unsigned-long-int fixed, unsigned-long-int fixed) fixed}
0007   1600           00096         MOVAR   STK03
0008   1580           00097         MOVRA   r0x1004
0009   1600           00098         MOVAR   STK04
000A   1580           00099         MOVRA   r0x1005
000B   1600           00100         MOVAR   STK05
000C   1580           00101         MOVRA   r0x1006
000D   1600           00102         MOVAR   STK06
000E   1580           00103         MOVRA   r0x1007
                      00104 ;;[ICODE] ../libsdcc/_modulong.c:35:    if iTemp1 [k4 lr4:30 so:0]{ ia0 a2p0 re1 rm0 nos0 ru0 dp0}{unsigned-long-int fixed}{ sir@ __modulong_b_1_1}[r0x1004 r0x1005 r0x1006 r0x1007 ] != 0 goto preHeaderLbl0($15)
                      00105 ;       .line   35; "../libsdcc/_modulong.c"    if (!b) return (unsigned long)-1;
000F   1600           00106         MOVAR   r0x1007
0010   1700           00107         ORAR    r0x1006
0011   1700           00108         ORAR    r0x1005
0012   1700           00109         ORAR    r0x1004
0013   3103           00110         JBSET   STATUS,2
0014   2800           00111         GOTO    _00119_DS_
                      00112 ;;[ICODE] ../libsdcc/_modulong.c:35:    ret 0xffffffff {unsigned-long-int literal}
0015   0BFF           00113         MOVAI   0xff
0016   1580           00114         MOVRA   STK02
0017   0BFF           00115         MOVAI   0xff
0018   1580           00116         MOVRA   STK01
0019   0BFF           00117         MOVAI   0xff
001A   1580           00118         MOVRA   STK00
001B   0BFF           00119         MOVAI   0xff
001C   2800           00120         GOTO    _00115_DS_
                      00121 ;;[ICODE] ../libsdcc/_modulong.c:39:  preHeaderLbl0($15) :
                      00122 ;;[ICODE] ../libsdcc/_modulong.c:39:    iTemp5 [k10 lr8:18 so:0]{ ia0 a2p0 re0 rm0 nos0 ru0 dp0}{unsigned-char fixed}{ sir@ __modulong_count_1_2}[r0x1008 ] := 0x1 {const-unsigned-char literal}
001D                  00123 _00119_DS_
                      00124 ;       .line   39; "../libsdcc/_modulong.c"    while (!(b & (1UL << (8*sizeof(unsigned long)-1)))) {
001D   0B01           00125         MOVAI   0x01
001E   1580           00126         MOVRA   r0x1008
                      00127 ;;[ICODE] ../libsdcc/_modulong.c:39:  _whilecontinue_0($3) :
                      00128 ;;[ICODE] ../libsdcc/_modulong.c:39:    iTemp3 [k8 lr11:12 so:0]{ ia0 a2p0 re0 rm0 nos0 ru0 dp0}{unsigned-long-int register} = iTemp1 [k4 lr4:30 so:0]{ ia0 a2p0 re1 rm0 nos0 ru0 dp0}{unsigned-long-int fixed}{ sir@ __modulong_b_1_1}[r0x1004 r0x1005 r0x1006 r0x1007 ] & 0x80000000 {unsigned-long-int literal}
001F                  00129 _00107_DS_
001F   3780           00130         JBCLR   r0x1004,7
0020   2800           00131         GOTO    _00112_DS_
                      00132 ;;[ICODE] ../libsdcc/_modulong.c:39:    if iTemp3 [k8 lr11:12 so:0]{ ia0 a2p0 re0 rm0 nos0 ru0 dp0}{unsigned-long-int register} != 0 goto preHeaderLbl1($18)
                      00133 ;;[ICODE] ../libsdcc/_modulong.c:40:    iTemp1 [k4 lr4:30 so:0]{ ia0 a2p0 re1 rm0 nos0 ru0 dp0}{unsigned-long-int fixed}{ sir@ __modulong_b_1_1}[r0x1004 r0x1005 r0x1006 r0x1007 ] = iTemp1 [k4 lr4:30 so:0]{ ia0 a2p0 re1 rm0 nos0 ru0 dp0}{unsigned-long-int fixed}{ sir@ __modulong_b_1_1}[r0x1004 r0x1005 r0x1006 r0x1007 ] << 0x1 {const-unsigned-char literal}
                      00134 ;       .line   40; "../libsdcc/_modulong.c"    b <<= 1;
0021   3C03           00135         BCLR    STATUS,0
0022   1480           00136         RLR     r0x1007
0023   1480           00137         RLR     r0x1006
0024   1480           00138         RLR     r0x1005
0025   1480           00139         RLR     r0x1004
                      00140 ;;[ICODE] ../libsdcc/_modulong.c:41:    iTemp5 [k10 lr8:18 so:0]{ ia0 a2p0 re0 rm0 nos0 ru0 dp0}{unsigned-char fixed}{ sir@ __modulong_count_1_2}[r0x1008 ] = iTemp5 [k10 lr8:18 so:0]{ ia0 a2p0 re0 rm0 nos0 ru0 dp0}{unsigned-char fixed}{ sir@ __modulong_count_1_2}[r0x1008 ] + 0x1 {const-unsigned-char literal}
                      00141 ;       .line   41; "../libsdcc/_modulong.c"    ++count;
0026   1980           00142         INCR    r0x1008
                      00143 ;;[ICODE] ../libsdcc/_modulong.c:41:     goto _whilecontinue_0($3)
0027   2800           00144         GOTO    _00107_DS_
                      00145 ;;[ICODE] ../libsdcc/_modulong.c:45:  preHeaderLbl1($18) :
                      00146 ;;[ICODE] ../libsdcc/_modulong.c:45:    iTemp9 [k14 lr18:30 so:0]{ ia0 a2p0 re0 rm0 nos0 ru0 dp0}{unsigned-char fixed}{ sir@ __modulong_count_1_2}[r0x1008 ] := iTemp5 [k10 lr8:18 so:0]{ ia0 a2p0 re0 rm0 nos0 ru0 dp0}{unsigned-char fixed}{ sir@ __modulong_count_1_2}[r0x1008 ]
                      00147 ;;[ICODE] ../libsdcc/_modulong.c:45:  _whilecontinue_1($8) :
                      00148 ;;[ICODE] ../libsdcc/_modulong.c:45:    if iTemp9 [k14 lr18:30 so:0]{ ia0 a2p0 re0 rm0 nos0 ru0 dp0}{unsigned-char fixed}{ sir@ __modulong_count_1_2}[r0x1008 ] == 0 goto _whilebreak_1($10)
0028                  00149 _00112_DS_
                      00150 ;       .line   45; "../libsdcc/_modulong.c"    while (count) {
0028   0B00           00151         MOVAI   0x00
0029   1700           00152         ORAR    r0x1008
002A   3503           00153         JBCLR   STATUS,2
002B   2800           00154         GOTO    _00114_DS_
                      00155 ;;[ICODE] ../libsdcc/_modulong.c:46:    iTemp6 [k11 lr22:23 so:0]{ ia0 a2p0 re0 rm0 nos0 ru0 dp0}{char fixed} = iTemp0 [k2 lr3:32 so:0]{ ia0 a2p0 re1 rm0 nos0 ru0 dp0}{unsigned-long-int fixed}{ sir@ __modulong_a_1_1}[r0x1000 r0x1001 r0x1002 r0x1003 ] < iTemp1 [k4 lr4:30 so:0]{ ia0 a2p0 re1 rm0 nos0 ru0 dp0}{unsigned-long-int fixed}{ sir@ __modulong_b_1_1}[r0x1004 r0x1005 r0x1006 r0x1007 ]
                      00156 ;       .line   46; "../libsdcc/_modulong.c"    if (a >= b) {
002C   1600           00157         MOVAR   r0x1004
002D   1200           00158         RSUBAR  r0x1000
002E   3103           00159         JBSET   STATUS,2
002F   2800           00160         GOTO    _00131_DS_
0030   1600           00161         MOVAR   r0x1005
0031   1200           00162         RSUBAR  r0x1001
0032   3103           00163         JBSET   STATUS,2
0033   2800           00164         GOTO    _00131_DS_
0034   1600           00165         MOVAR   r0x1006
0035   1200           00166         RSUBAR  r0x1002
0036   3103           00167         JBSET   STATUS,2
0037   2800           00168         GOTO    _00131_DS_
0038   1600           00169         MOVAR   r0x1007
0039   1200           00170         RSUBAR  r0x1003
003A                  00171 _00131_DS_
003A   3003           00172         JBSET   STATUS,0
003B   2800           00173         GOTO    _00111_DS_
                      00174 ;;genSkipc:3246: created from rifx:0xbff55840
                      00175 ;;[ICODE] ../libsdcc/_modulong.c:46:    if iTemp6 [k11 lr22:23 so:0]{ ia0 a2p0 re0 rm0 nos0 ru0 dp0}{char fixed} != 0 goto _iffalse_1($7)
                      00176 ;;[ICODE] ../libsdcc/_modulong.c:47:    iTemp0 [k2 lr3:32 so:0]{ ia0 a2p0 re1 rm0 nos0 ru0 dp0}{unsigned-long-int fixed}{ sir@ __modulong_a_1_1}[r0x1000 r0x1001 r0x1002 r0x1003 ] = iTemp0 [k2 lr3:32 so:0]{ ia0 a2p0 re1 rm0 nos0 ru0 dp0}{unsigned-long-int fixed}{ sir@ __modulong_a_1_1}[r0x1000 r0x1001 r0x1002 r0x1003 ] - iTemp1 [k4 lr4:30 so:0]{ ia0 a2p0 re1 rm0 nos0 ru0 dp0}{unsigned-long-int fixed}{ sir@ __modulong_b_1_1}[r0x1004 r0x1005 r0x1006 r0x1007 ]
                      00177 ;       .line   47; "../libsdcc/_modulong.c"    a -= b;
003C   1600           00178         MOVAR   r0x1007
003D   1280           00179         RSUBRA  r0x1003
003E   1600           00180         MOVAR   r0x1006
003F   3003           00181         JBSET   STATUS,0
0040   1800           00182         JZAR    r0x1006
0041   1280           00183         RSUBRA  r0x1002
0042   1600           00184         MOVAR   r0x1005
0043   3003           00185         JBSET   STATUS,0
0044   1800           00186         JZAR    r0x1005
0045   1280           00187         RSUBRA  r0x1001
0046   1600           00188         MOVAR   r0x1004
0047   3003           00189         JBSET   STATUS,0
0048   1800           00190         JZAR    r0x1004
0049   1280           00191         RSUBRA  r0x1000
                      00192 ;;[ICODE] ../libsdcc/_modulong.c:47:  _iffalse_1($7) :
                      00193 ;;[ICODE] ../libsdcc/_modulong.c:49:    iTemp1 [k4 lr4:30 so:0]{ ia0 a2p0 re1 rm0 nos0 ru0 dp0}{unsigned-long-int fixed}{ sir@ __modulong_b_1_1}[r0x1004 r0x1005 r0x1006 r0x1007 ] = iTemp1 [k4 lr4:30 so:0]{ ia0 a2p0 re1 rm0 nos0 ru0 dp0}{unsigned-long-int fixed}{ sir@ __modulong_b_1_1}[r0x1004 r0x1005 r0x1006 r0x1007 ] >> 0x1 {const-unsigned-char literal}
                      00194 ;;shiftRight_Left2ResultLit:5278: shCount=1, size=4, sign=0, same=1, offr=0
004A                  00195 _00111_DS_
                      00196 ;       .line   49; "../libsdcc/_modulong.c"    b >>= 1;
004A   3C03           00197         BCLR    STATUS,0
004B   1380           00198         RRR     r0x1004
004C   1380           00199         RRR     r0x1005
004D   1380           00200         RRR     r0x1006
004E   1380           00201         RRR     r0x1007
                      00202 ;;[ICODE] ../libsdcc/_modulong.c:50:    iTemp9 [k14 lr18:30 so:0]{ ia0 a2p0 re0 rm0 nos0 ru0 dp0}{unsigned-char fixed}{ sir@ __modulong_count_1_2}[r0x1008 ] = iTemp9 [k14 lr18:30 so:0]{ ia0 a2p0 re0 rm0 nos0 ru0 dp0}{unsigned-char fixed}{ sir@ __modulong_count_1_2}[r0x1008 ] - 0x1 {const-unsigned-char literal}
                      00203 ;       .line   50; "../libsdcc/_modulong.c"    --count;
004F   1B80           00204         DECR    r0x1008
                      00205 ;;[ICODE] ../libsdcc/_modulong.c:50:     goto _whilecontinue_1($8)
0050   2800           00206         GOTO    _00112_DS_
                      00207 ;;[ICODE] ../libsdcc/_modulong.c:50:  _whilebreak_1($10) :
                      00208 ;;[ICODE] ../libsdcc/_modulong.c:53:    ret iTemp0 [k2 lr3:32 so:0]{ ia0 a2p0 re1 rm0 nos0 ru0 dp0}{unsigned-long-int fixed}{ sir@ __modulong_a_1_1}[r0x1000 r0x1001 r0x1002 r0x1003 ]
0051                  00209 _00114_DS_
                      00210 ;       .line   53; "../libsdcc/_modulong.c"    return a;
0051   1600           00211         MOVAR   r0x1003
0052   1580           00212         MOVRA   STK02
0053   1600           00213         MOVAR   r0x1002
0054   1580           00214         MOVRA   STK01
0055   1600           00215         MOVAR   r0x1001
0056   1580           00216         MOVRA   STK00
0057   1600           00217         MOVAR   r0x1000
                      00218 ;;[ICODE] ../libsdcc/_modulong.c:53:  _return($11) :
                      00219 ;;[ICODE] ../libsdcc/_modulong.c:53:    eproc __modulong [k1 lr0:0 so:0]{ ia0 a2p0 re0 rm0 nos0 ru0 dp0}{unsigned-long-int function ( unsigned-long-int fixed, unsigned-long-int fixed) fixed}
0058                  00220 _00115_DS_
0058   000C           00221         RETURN  
                      00222 ; exit point of __modulong
                      00223 
                      00224 
                      00225 ;       code size estimation:
                      00226 ;          89+    0 =    89 instructions (  178 byte)
                      00227 
                      00228         end
gpasm-1.7.0_beta1 (Jan 22 2015)_modulong.asm      2015-1-22  23:30:21          PAGE  2


SYMBOL TABLE
  LABEL                             VALUE

BUZOUT                            00000005
C                                 00000000
DC                                00000001
DDR0                              00000045
DDR00                             00000000
DDR01                             00000001
DDR02                             00000002
DDR03                             00000003
DDR1                              00000046
DDR10                             00000000
DDR11                             00000001
DDR12                             00000002
DDR14                             00000004
DDR15                             00000005
DDR16                             00000006
DDR17                             00000007
EIS                               00000006
FSR                               00000004
GIE                               00000007
INDF                              00000000
INT0IE                            00000002
INT0IF                            00000002
INT0M                             00000006
INTECON                           0000000E
INTFLAG                           0000000F
KBIE                              00000001
KBIF                              00000001
KBIM                              00000009
KBIM0                             00000000
KBIM1                             00000001
KBIM2                             00000002
KBIM3                             00000003
KBIM4                             00000004
KBIM5                             00000005
KBIM6                             00000006
KBIM7                             00000007
MCR                               00000008
ODCON                             0000000C
P0                                00000005
P00                               00000000
P00PD                             00000000
P01                               00000001
P01PD                             00000001
P02                               00000002
P02PD                             00000002
P03                               00000003
P03PD                             00000003
P1                                00000006
P10                               00000000
P10OD                             00000000
P10PD                             00000004
P10PU                             00000000
P11                               00000001
P11OD                             00000001
P11PD                             00000005
P11PU                             00000001
P12                               00000002
P12OD                             00000002
P12PD                             00000006
P12PU                             00000002
P13                               00000003
P14                               00000004
P14OD                             00000004
P14PU                             00000004
P15                               00000005
P15OD                             00000005
P15PU                             00000005
P16                               00000006
P16OD                             00000006
P16PU                             00000006
P17                               00000007
P17OD                             00000007
P17PU                             00000007
PCL                               00000002
PCLATH                            0000000A
PD                                00000003
PDCON                             0000000B
PUCON                             0000000D
PWMOUT                            00000006
RST                               00000007
STATUS                            00000003
STK00                             00000000
STK01                             00000000
STK02                             00000000
STK03                             00000000
STK04                             00000000
STK05                             00000000
STK06                             00000000
T0CNT                             00000001
T0CR                              00000041
T0IE                              00000000
T0IF                              00000000
T0PTA                             00000003
T0PTS                             00000005
T0SE                              00000004
T1CNT                             0000004D
T1CR                              0000004C
T1DATA                            0000004F
T1IE                              00000001
T1IF                              00000000
T1LOAD                            0000004E
TBS                               00000007
TMCR                              0000004B
TMR1EN                            00000007
TO                                00000004
WDTEN                             00000007
Z                                 00000002
_00107_DS_                        0000001F
_00111_DS_                        0000004A
_00112_DS_                        00000028
_00114_DS_                        00000051
_00115_DS_                        00000058
_00119_DS_                        0000001D
_00131_DS_                        0000003A
_CONFIG0                          00002000
_CONFIG1                          00002001
_CP_ALL                           00001FFF
_FCPU_2T                          00003F7F
_FCPU_4T                          00003FFF
_IRC_1M                           00003FCF
_IRC_2M                           00003FDF
_IRC_444K                         00003FAF
_IRC_4M                           00003FEF
_IRC_8M                           00003FFF
_MCLR_OFF                         00003FF7
_MCLR_ON                          00003FFF
_OSC_HXT                          00002FFF
_OSC_IRC                          000037FF
_OSC_IRC_RTC                      00003FFF
_OSC_LXT                          000027FF
_PWRT_OFF                         00003BFF
_PWRT_ON                          00003FFF
_RD_FROM_PIN                      00003FFF
_RD_FROM_REG                      00003EFF
_SMT_OFF                          00003FFF
_SMT_ON                           00003DFF
_TWDT_18MS                        00003FFF
_TWDT_288MS                       00003DFF
_TWDT_4P5MS                       00003EFF
_TWDT_72MS                        00003CFF
_VBOR_15                          00003FF8
_VBOR_18                          00003FF9
_VBOR_20                          00003FFA
_VBOR_22                          00003FFB
_VBOR_24                          00003FFC
_VBOR_26                          00003FFD
_VBOR_30                          00003FFE
_VBOR_36                          00003FFF
_WDT_OFF                          000037FF
_WDT_ON                           00003FFF
__30P011                          00000001
__modulong                        00000000
r0x1000                           00000003
r0x1001                           00000002
r0x1002                           00000001
r0x1003                           00000000
r0x1004                           00000007
r0x1005                           00000006
r0x1006                           00000005
r0x1007                           00000004
r0x1008                           00000008

Errors   :     0
Warnings :     0 reported,     0 suppressed
Messages :     0 reported,     0 suppressed

