gpasm-1.7.0_beta1 (Jan 22 2015)fslt.asm           2015-1-22  23:30:20          PAGE  1


LOC  OBJECT CODE     LINE SOURCE TEXT
  VALUE

                      00001 ;--------------------------------------------------------
                      00002 ; File Created by SN-SDCC : ANSI-C Compiler
                      00003 ; Version 0.0.4 (Jan 22 2015) (Linux)
                      00004 ; This file was generated Thu Jan 22 23:30:20 2015
                      00005 ;--------------------------------------------------------
                      00006 ; MC3X port for the RISC core
                      00007 ;--------------------------------------------------------
                      00008 ;       .file   "../libsdcc/fslt.c"
                      00009         list    p=30p011
                      00010         radix dec
                      00011         include "mc30p011.inc"
                      00001                 LIST
                      00002 ;mc30p011.inc    Standard Header File, Version 1.00 by Sinomcu
                      00225                 LIST
                      00012 ;--------------------------------------------------------
                      00013 ; external declarations
                      00014 ;--------------------------------------------------------
                      00015         extern  ___uchar2fs
                      00016         extern  ___schar2fs
                      00017         extern  ___uint2fs
                      00018         extern  ___sint2fs
                      00019         extern  ___ulong2fs
                      00020         extern  ___slong2fs
                      00021         extern  ___fs2uchar
                      00022         extern  ___fs2schar
                      00023         extern  ___fs2uint
                      00024         extern  ___fs2sint
                      00025         extern  ___fs2ulong
                      00026         extern  ___fs2slong
                      00027         extern  ___fsadd
                      00028         extern  ___fssub
                      00029         extern  ___fsmul
                      00030         extern  ___fsdiv
                      00031         extern  ___fseq
                      00032         extern  ___fsneq
                      00033         extern  ___fsgt
                      00034 
                      00035         extern STK06
                      00036         extern STK05
                      00037         extern STK04
                      00038         extern STK03
                      00039         extern STK02
                      00040         extern STK01
                      00041         extern STK00
                      00042 ;--------------------------------------------------------
                      00043 ; global declarations
                      00044 ;--------------------------------------------------------
                      00045         global  ___fslt
                      00046 
                      00047 ;--------------------------------------------------------
                      00048 ; global definitions
                      00049 ;--------------------------------------------------------
                      00050 ;--------------------------------------------------------
                      00051 ; absolute symbol definitions
                      00052 ;--------------------------------------------------------
                      00053 ;--------------------------------------------------------
                      00054 ; compiler-defined variables
                      00055 ;--------------------------------------------------------
                      00056 UDL_fslt_0      udata
0000                  00057 r0x100B res     1
0000                  00058 r0x100A res     1
0001                  00059 r0x1009 res     1
0001                  00060 r0x1008 res     1
0002                  00061 r0x100F res     1
0002                  00062 r0x100E res     1
0003                  00063 r0x100D res     1
0003                  00064 r0x100C res     1
0004                  00065 r0x1010 res     1
0004                  00066 ___fslt_fl1_1_22        res     4
0006                  00067 ___fslt_fl2_1_22        res     4
                      00068 ;--------------------------------------------------------
                      00069 ; initialized data
                      00070 ;--------------------------------------------------------
                      00071 ;--------------------------------------------------------
                      00072 ; overlayable items in internal ram 
                      00073 ;--------------------------------------------------------
                      00074 ;       udata_ovr
                      00075 ;--------------------------------------------------------
                      00076 ; code
                      00077 ;--------------------------------------------------------
                      00078 code_fslt       code
                      00079 ;***
                      00080 ;  pBlock Stats: dbName = C
                      00081 ;***
                      00082 ;entry:  ___fslt        ;Function start
                      00083 ; 2 exit points
                      00084 ;has an exit
                      00085 ;16 compiler assigned registers:
                      00086 ;   r0x1008
                      00087 ;   STK00
                      00088 ;   r0x1009
                      00089 ;   STK01
                      00090 ;   r0x100A
                      00091 ;   STK02
                      00092 ;   r0x100B
                      00093 ;   STK03
                      00094 ;   r0x100C
                      00095 ;   STK04
                      00096 ;   r0x100D
                      00097 ;   STK05
                      00098 ;   r0x100E
                      00099 ;   STK06
                      00100 ;   r0x100F
                      00101 ;   r0x1010
                      00102 ;; Starting pCode block
                      00103 ;;[ICODE] ../libsdcc/fslt.c:55:  _entry($9) :
                      00104 ;;[ICODE] ../libsdcc/fslt.c:55:         proc ___fslt [k1 lr0:0 so:0]{ ia0 a2p0 re0 rm0 nos0 ru0 dp0}{char function ( float fixed, float fixed) fixed}
0000                  00105 ___fslt ;Function start
                      00106 ; 2 exit points
                      00107 ;;[ICODE] ../libsdcc/fslt.c:55: iTemp0 [k2 lr3:6 so:0]{ ia0 a2p0 re1 rm0 nos0 ru0 dp0}{float fixed}{ sir@ ___fslt_a1_1_21}[r0x1000 r0x1001 r0x1002 r0x1003 ] = recv ___fslt [k1 lr0:0 so:0]{ ia0 a2p0 re0 rm0 nos0 ru0 dp0}{char function ( float fixed, float fixed) fixed}
                      00108 ;       .line   55; "../libsdcc/fslt.c" char __fslt (float a1, float a2) _FS_REENTRANT
0000   1580           00109         MOVRA   r0x1008
0001   1600           00110         MOVAR   STK00
0002   1580           00111         MOVRA   r0x1009
0003   1600           00112         MOVAR   STK01
0004   1580           00113         MOVRA   r0x100A
0005   1600           00114         MOVAR   STK02
0006   1580           00115         MOVRA   (___fslt_fl1_1_22 + 0)
0007   1580           00116         MOVRA   r0x100B
                      00117 ;;[ICODE] ../libsdcc/fslt.c:55: iTemp1 [k4 lr4:8 so:0]{ ia0 a2p0 re1 rm0 nos0 ru0 dp0}{float fixed}{ sir@ ___fslt_a2_1_21}[r0x1004 r0x1005 r0x1006 r0x1007 ] = recv ___fslt [k1 lr0:0 so:0]{ ia0 a2p0 re0 rm0 nos0 ru0 dp0}{char function ( float fixed, float fixed) fixed}
0008   1600           00118         MOVAR   STK03
0009   1580           00119         MOVRA   r0x100C
000A   1600           00120         MOVAR   STK04
000B   1580           00121         MOVRA   r0x100D
000C   1600           00122         MOVAR   STK05
000D   1580           00123         MOVRA   r0x100E
000E   1600           00124         MOVAR   STK06
000F   1580           00125         MOVRA   r0x100F
                      00126 ;;[ICODE] ../libsdcc/fslt.c:59:         iTemp2 [k7 lr5:6 so:0]{ ia0 a2p0 re0 rm1 nos0 ru0 dp0}{volatile-float near* fixed}[remat] = &[___fslt_fl1_1_22 [k6 lr0:0 so:0]{ ia0 a2p0 re0 rm0 nos0 ru0 dp0}{volatile-struct float_long fixed}]
                      00127 ;;[ICODE] ../libsdcc/fslt.c:59:         *(iTemp2 [k7 lr5:6 so:0]{ ia1 a2p0 re0 rm1 nos0 ru0 dp0}{volatile-float near* fixed}[remat]) := iTemp0 [k2 lr3:6 so:0]{ ia0 a2p0 re1 rm0 nos0 ru0 dp0}{float fixed}{ sir@ ___fslt_a1_1_21}[r0x1000 r0x1001 r0x1002 r0x1003 ]
                      00128 ;;gen.c:6444: size=3/4, offset=0, AOP_TYPE(res)=8
                      00129 ;;99    MOVAR   r0x100B
                      00130 ;;gen.c:6444: size=2/4, offset=1, AOP_TYPE(res)=8
                      00131 ;       .line   59; "../libsdcc/fslt.c" fl1.f = a1;
0010   1600           00132         MOVAR   r0x100A
0011   1580           00133         MOVRA   (___fslt_fl1_1_22 + 1)
                      00134 ;;gen.c:6444: size=1/4, offset=2, AOP_TYPE(res)=8
0012   1600           00135         MOVAR   r0x1009
0013   1580           00136         MOVRA   (___fslt_fl1_1_22 + 2)
                      00137 ;;gen.c:6444: size=0/4, offset=3, AOP_TYPE(res)=8
0014   1600           00138         MOVAR   r0x1008
0015   1580           00139         MOVRA   (___fslt_fl1_1_22 + 3)
                      00140 ;;[ICODE] ../libsdcc/fslt.c:60:         iTemp4 [k11 lr7:8 so:0]{ ia0 a2p0 re0 rm1 nos0 ru0 dp0}{volatile-float near* fixed}[remat] = &[___fslt_fl2_1_22 [k10 lr0:0 so:0]{ ia0 a2p0 re0 rm0 nos0 ru0 dp0}{volatile-struct float_long fixed}]
                      00141 ;;[ICODE] ../libsdcc/fslt.c:60:         *(iTemp4 [k11 lr7:8 so:0]{ ia1 a2p0 re0 rm1 nos0 ru0 dp0}{volatile-float near* fixed}[remat]) := iTemp1 [k4 lr4:8 so:0]{ ia0 a2p0 re1 rm0 nos0 ru0 dp0}{float fixed}{ sir@ ___fslt_a2_1_21}[r0x1004 r0x1005 r0x1006 r0x1007 ]
                      00142 ;;gen.c:6444: size=3/4, offset=0, AOP_TYPE(res)=8
                      00143 ;       .line   60; "../libsdcc/fslt.c" fl2.f = a2;
0016   1600           00144         MOVAR   r0x100F
0017   1580           00145         MOVRA   (___fslt_fl2_1_22 + 0)
                      00146 ;;gen.c:6444: size=2/4, offset=1, AOP_TYPE(res)=8
0018   1600           00147         MOVAR   r0x100E
0019   1580           00148         MOVRA   (___fslt_fl2_1_22 + 1)
                      00149 ;;gen.c:6444: size=1/4, offset=2, AOP_TYPE(res)=8
001A   1600           00150         MOVAR   r0x100D
001B   1580           00151         MOVRA   (___fslt_fl2_1_22 + 2)
                      00152 ;;gen.c:6444: size=0/4, offset=3, AOP_TYPE(res)=8
001C   1600           00153         MOVAR   r0x100C
001D   1580           00154         MOVRA   (___fslt_fl2_1_22 + 3)
                      00155 ;;[ICODE] ../libsdcc/fslt.c:62:         iTemp6 [k14 lr9:10 so:0]{ ia0 a2p0 re0 rm1 nos0 ru0 dp0}{volatile-long-int near* fixed}[remat] = &[___fslt_fl1_1_22 [k6 lr0:0 so:0]{ ia0 a2p0 re0 rm0 nos0 ru0 dp0}{volatile-struct float_long fixed}]
                      00156 ;;[ICODE] ../libsdcc/fslt.c:62:         iTemp8 [k17 lr10:11 so:0]{ ia0 a2p0 re0 rm0 nos0 ru0 dp0}{volatile-long-int fixed}[r0x1000 r0x1001 r0x1002 r0x1003 ] = @[iTemp6 [k14 lr9:10 so:0]{ ia1 a2p0 re0 rm1 nos0 ru0 dp0}{volatile-long-int near* fixed}[remat] + 0x0 {const-unsigned-char literal}]
                      00157 ;       .line   62; "../libsdcc/fslt.c" if (fl1.l<0 && fl2.l<0) {
001E   1600           00158         MOVAR   (___fslt_fl1_1_22 + 0)
001F   1580           00159         MOVRA   r0x100B
0020   1600           00160         MOVAR   (___fslt_fl1_1_22 + 1)
0021   1580           00161         MOVRA   r0x100A
0022   1600           00162         MOVAR   (___fslt_fl1_1_22 + 2)
0023   1580           00163         MOVRA   r0x1009
0024   1600           00164         MOVAR   (___fslt_fl1_1_22 + 3)
0025   1580           00165         MOVRA   r0x1008
                      00166 ;;[ICODE] ../libsdcc/fslt.c:62:         iTemp9 [k18 lr11:12 so:0]{ ia0 a2p0 re0 rm0 nos0 ru0 dp0}{char fixed} = iTemp8 [k17 lr10:11 so:0]{ ia0 a2p0 re0 rm0 nos0 ru0 dp0}{volatile-long-int fixed}[r0x1000 r0x1001 r0x1002 r0x1003 ] < 0x0 {volatile-long-int literal}
                      00167 ;;signed compare: left < lit(0x0=0), size=4, mask=ffffffff
0026   3803           00168         BSET    STATUS,0
0027   3380           00169         JBSET   r0x1008,7
0028   3C03           00170         BCLR    STATUS,0
0029   3003           00171         JBSET   STATUS,0
002A   2800           00172         GOTO    _00108_DS_
                      00173 ;;genSkipc:3246: created from rifx:0xbfe46ed0
                      00174 ;;[ICODE] ../libsdcc/fslt.c:62:         if iTemp9 [k18 lr11:12 so:0]{ ia0 a2p0 re0 rm0 nos0 ru0 dp0}{char fixed} == 0 goto _iffalse_1($4)
                      00175 ;;[ICODE] ../libsdcc/fslt.c:62:         iTemp10 [k19 lr13:14 so:0]{ ia0 a2p0 re0 rm1 nos0 ru0 dp0}{volatile-long-int near* fixed}[remat] = &[___fslt_fl2_1_22 [k10 lr0:0 so:0]{ ia0 a2p0 re0 rm0 nos0 ru0 dp0}{volatile-struct float_long fixed}]
                      00176 ;;[ICODE] ../libsdcc/fslt.c:62:         iTemp12 [k22 lr14:15 so:0]{ ia0 a2p0 re0 rm0 nos0 ru0 dp0}{volatile-long-int fixed}[r0x1000 r0x1001 r0x1002 r0x1003 ] = @[iTemp10 [k19 lr13:14 so:0]{ ia1 a2p0 re0 rm1 nos0 ru0 dp0}{volatile-long-int near* fixed}[remat] + 0x0 {const-unsigned-char literal}]
002B   1600           00177         MOVAR   (___fslt_fl2_1_22 + 0)
002C   1580           00178         MOVRA   r0x100B
002D   1600           00179         MOVAR   (___fslt_fl2_1_22 + 1)
002E   1580           00180         MOVRA   r0x100A
002F   1600           00181         MOVAR   (___fslt_fl2_1_22 + 2)
0030   1580           00182         MOVRA   r0x1009
0031   1600           00183         MOVAR   (___fslt_fl2_1_22 + 3)
0032   1580           00184         MOVRA   r0x1008
                      00185 ;;[ICODE] ../libsdcc/fslt.c:62:         iTemp13 [k23 lr15:16 so:0]{ ia0 a2p0 re0 rm0 nos0 ru0 dp0}{char fixed} = iTemp12 [k22 lr14:15 so:0]{ ia0 a2p0 re0 rm0 nos0 ru0 dp0}{volatile-long-int fixed}[r0x1000 r0x1001 r0x1002 r0x1003 ] < 0x0 {volatile-long-int literal}
                      00186 ;;signed compare: left < lit(0x0=0), size=4, mask=ffffffff
0033   3803           00187         BSET    STATUS,0
0034   3380           00188         JBSET   r0x1008,7
0035   3C03           00189         BCLR    STATUS,0
0036   3003           00190         JBSET   STATUS,0
0037   2800           00191         GOTO    _00108_DS_
                      00192 ;;genSkipc:3246: created from rifx:0xbfe46ed0
                      00193 ;;[ICODE] ../libsdcc/fslt.c:62:         if iTemp13 [k23 lr15:16 so:0]{ ia0 a2p0 re0 rm0 nos0 ru0 dp0}{char fixed} == 0 goto _iffalse_1($4)
                      00194 ;;[ICODE] ../libsdcc/fslt.c:63:         iTemp14 [k24 lr17:18 so:0]{ ia0 a2p0 re0 rm1 nos0 ru0 dp0}{volatile-long-int near* fixed}[remat] = &[___fslt_fl2_1_22 [k10 lr0:0 so:0]{ ia0 a2p0 re0 rm0 nos0 ru0 dp0}{volatile-struct float_long fixed}]
                      00195 ;;[ICODE] ../libsdcc/fslt.c:63:         iTemp16 [k27 lr18:21 so:0]{ ia0 a2p0 re0 rm0 nos0 ru0 dp0}{volatile-long-int fixed}[r0x1000 r0x1001 r0x1002 r0x1003 ] = @[iTemp14 [k24 lr17:18 so:0]{ ia1 a2p0 re0 rm1 nos0 ru0 dp0}{volatile-long-int near* fixed}[remat] + 0x0 {const-unsigned-char literal}]
                      00196 ;       .line   63; "../libsdcc/fslt.c" if (fl2.l < fl1.l)
0038   1600           00197         MOVAR   (___fslt_fl2_1_22 + 0)
0039   1580           00198         MOVRA   r0x100B
003A   1600           00199         MOVAR   (___fslt_fl2_1_22 + 1)
003B   1580           00200         MOVRA   r0x100A
003C   1600           00201         MOVAR   (___fslt_fl2_1_22 + 2)
003D   1580           00202         MOVRA   r0x1009
003E   1600           00203         MOVAR   (___fslt_fl2_1_22 + 3)
003F   1580           00204         MOVRA   r0x1008
                      00205 ;;[ICODE] ../libsdcc/fslt.c:63:         iTemp17 [k28 lr19:20 so:0]{ ia0 a2p0 re0 rm1 nos0 ru0 dp0}{volatile-long-int near* fixed}[remat] = &[___fslt_fl1_1_22 [k6 lr0:0 so:0]{ ia0 a2p0 re0 rm0 nos0 ru0 dp0}{volatile-struct float_long fixed}]
                      00206 ;;[ICODE] ../libsdcc/fslt.c:63:         iTemp19 [k31 lr20:21 so:0]{ ia0 a2p0 re0 rm0 nos0 ru0 dp0}{volatile-long-int fixed}[r0x1004 r0x1005 r0x1006 r0x1007 ] = @[iTemp17 [k28 lr19:20 so:0]{ ia1 a2p0 re0 rm1 nos0 ru0 dp0}{volatile-long-int near* fixed}[remat] + 0x0 {const-unsigned-char literal}]
0040   1600           00207         MOVAR   (___fslt_fl1_1_22 + 0)
0041   1580           00208         MOVRA   r0x100F
0042   1600           00209         MOVAR   (___fslt_fl1_1_22 + 1)
0043   1580           00210         MOVRA   r0x100E
0044   1600           00211         MOVAR   (___fslt_fl1_1_22 + 2)
0045   1580           00212         MOVRA   r0x100D
0046   1600           00213         MOVAR   (___fslt_fl1_1_22 + 3)
0047   1580           00214         MOVRA   r0x100C
                      00215 ;;[ICODE] ../libsdcc/fslt.c:63:         iTemp20 [k32 lr21:22 so:0]{ ia0 a2p0 re0 rm0 nos0 ru0 dp0}{char fixed} = iTemp16 [k27 lr18:21 so:0]{ ia0 a2p0 re0 rm0 nos0 ru0 dp0}{volatile-long-int fixed}[r0x1000 r0x1001 r0x1002 r0x1003 ] < iTemp19 [k31 lr20:21 so:0]{ ia0 a2p0 re0 rm0 nos0 ru0 dp0}{volatile-long-int fixed}[r0x1004 r0x1005 r0x1006 r0x1007 ]
0048   1600           00216         MOVAR   r0x1008
0049   0E80           00217         ADDAI   0x80
004A   1580           00218         MOVRA   r0x1010
004B   1600           00219         MOVAR   r0x100C
004C   0E80           00220         ADDAI   0x80
004D   1200           00221         RSUBAR  r0x1010
004E   3103           00222         JBSET   STATUS,2
004F   2800           00223         GOTO    _00122_DS_
0050   1600           00224         MOVAR   r0x100D
0051   1200           00225         RSUBAR  r0x1009
0052   3103           00226         JBSET   STATUS,2
0053   2800           00227         GOTO    _00122_DS_
0054   1600           00228         MOVAR   r0x100E
0055   1200           00229         RSUBAR  r0x100A
0056   3103           00230         JBSET   STATUS,2
0057   2800           00231         GOTO    _00122_DS_
0058   1600           00232         MOVAR   r0x100F
0059   1200           00233         RSUBAR  r0x100B
005A                  00234 _00122_DS_
005A   3403           00235         JBCLR   STATUS,0
005B   2800           00236         GOTO    _00106_DS_
                      00237 ;;genSkipc:3246: created from rifx:0xbfe46ed0
                      00238 ;;[ICODE] ../libsdcc/fslt.c:63:         if iTemp20 [k32 lr21:22 so:0]{ ia0 a2p0 re0 rm0 nos0 ru0 dp0}{char fixed} == 0 goto _iffalse_0($2)
                      00239 ;;[ICODE] ../libsdcc/fslt.c:64:         ret 0x1 {const-unsigned-char literal}
                      00240 ;       .line   64; "../libsdcc/fslt.c" return (1);
005C   0B01           00241         MOVAI   0x01
005D   2800           00242         GOTO    _00112_DS_
                      00243 ;;[ICODE] ../libsdcc/fslt.c:64:  _iffalse_0($2) :
                      00244 ;;[ICODE] ../libsdcc/fslt.c:65:         ret 0x0 {const-unsigned-char literal}
005E                  00245 _00106_DS_
                      00246 ;       .line   65; "../libsdcc/fslt.c" return (0);
005E   0B00           00247         MOVAI   0x00
005F   2800           00248         GOTO    _00112_DS_
                      00249 ;;[ICODE] ../libsdcc/fslt.c:65:  _iffalse_1($4) :
                      00250 ;;[ICODE] ../libsdcc/fslt.c:68:         iTemp21 [k33 lr27:28 so:0]{ ia0 a2p0 re0 rm1 nos0 ru0 dp0}{volatile-long-int near* fixed}[remat] = &[___fslt_fl1_1_22 [k6 lr0:0 so:0]{ ia0 a2p0 re0 rm0 nos0 ru0 dp0}{volatile-struct float_long fixed}]
                      00251 ;;[ICODE] ../libsdcc/fslt.c:68:         iTemp23 [k36 lr28:31 so:0]{ ia0 a2p0 re0 rm0 nos0 ru0 dp0}{volatile-long-int fixed}[r0x1000 r0x1001 r0x1002 r0x1003 ] = @[iTemp21 [k33 lr27:28 so:0]{ ia1 a2p0 re0 rm1 nos0 ru0 dp0}{volatile-long-int near* fixed}[remat] + 0x0 {const-unsigned-char literal}]
0060                  00252 _00108_DS_
                      00253 ;       .line   68; "../libsdcc/fslt.c" if (fl1.l < fl2.l)
0060   1600           00254         MOVAR   (___fslt_fl1_1_22 + 0)
0061   1580           00255         MOVRA   r0x100B
0062   1600           00256         MOVAR   (___fslt_fl1_1_22 + 1)
0063   1580           00257         MOVRA   r0x100A
0064   1600           00258         MOVAR   (___fslt_fl1_1_22 + 2)
0065   1580           00259         MOVRA   r0x1009
0066   1600           00260         MOVAR   (___fslt_fl1_1_22 + 3)
0067   1580           00261         MOVRA   r0x1008
                      00262 ;;[ICODE] ../libsdcc/fslt.c:68:         iTemp24 [k37 lr29:30 so:0]{ ia0 a2p0 re0 rm1 nos0 ru0 dp0}{volatile-long-int near* fixed}[remat] = &[___fslt_fl2_1_22 [k10 lr0:0 so:0]{ ia0 a2p0 re0 rm0 nos0 ru0 dp0}{volatile-struct float_long fixed}]
                      00263 ;;[ICODE] ../libsdcc/fslt.c:68:         iTemp26 [k40 lr30:31 so:0]{ ia0 a2p0 re0 rm0 nos0 ru0 dp0}{volatile-long-int fixed}[r0x1004 r0x1005 r0x1006 r0x1007 ] = @[iTemp24 [k37 lr29:30 so:0]{ ia1 a2p0 re0 rm1 nos0 ru0 dp0}{volatile-long-int near* fixed}[remat] + 0x0 {const-unsigned-char literal}]
0068   1600           00264         MOVAR   (___fslt_fl2_1_22 + 0)
0069   1580           00265         MOVRA   r0x100F
006A   1600           00266         MOVAR   (___fslt_fl2_1_22 + 1)
006B   1580           00267         MOVRA   r0x100E
006C   1600           00268         MOVAR   (___fslt_fl2_1_22 + 2)
006D   1580           00269         MOVRA   r0x100D
006E   1600           00270         MOVAR   (___fslt_fl2_1_22 + 3)
006F   1580           00271         MOVRA   r0x100C
                      00272 ;;[ICODE] ../libsdcc/fslt.c:68:         iTemp27 [k41 lr31:32 so:0]{ ia0 a2p0 re0 rm0 nos0 ru0 dp0}{char fixed} = iTemp23 [k36 lr28:31 so:0]{ ia0 a2p0 re0 rm0 nos0 ru0 dp0}{volatile-long-int fixed}[r0x1000 r0x1001 r0x1002 r0x1003 ] < iTemp26 [k40 lr30:31 so:0]{ ia0 a2p0 re0 rm0 nos0 ru0 dp0}{volatile-long-int fixed}[r0x1004 r0x1005 r0x1006 r0x1007 ]
0070   1600           00273         MOVAR   r0x1008
0071   0E80           00274         ADDAI   0x80
0072   1580           00275         MOVRA   r0x1010
0073   1600           00276         MOVAR   r0x100C
0074   0E80           00277         ADDAI   0x80
0075   1200           00278         RSUBAR  r0x1010
0076   3103           00279         JBSET   STATUS,2
0077   2800           00280         GOTO    _00123_DS_
0078   1600           00281         MOVAR   r0x100D
0079   1200           00282         RSUBAR  r0x1009
007A   3103           00283         JBSET   STATUS,2
007B   2800           00284         GOTO    _00123_DS_
007C   1600           00285         MOVAR   r0x100E
007D   1200           00286         RSUBAR  r0x100A
007E   3103           00287         JBSET   STATUS,2
007F   2800           00288         GOTO    _00123_DS_
0080   1600           00289         MOVAR   r0x100F
0081   1200           00290         RSUBAR  r0x100B
0082                  00291 _00123_DS_
0082   3403           00292         JBCLR   STATUS,0
0083   2800           00293         GOTO    _00111_DS_
                      00294 ;;genSkipc:3246: created from rifx:0xbfe46ed0
                      00295 ;;[ICODE] ../libsdcc/fslt.c:68:         if iTemp27 [k41 lr31:32 so:0]{ ia0 a2p0 re0 rm0 nos0 ru0 dp0}{char fixed} == 0 goto _iffalse_2($7)
                      00296 ;;[ICODE] ../libsdcc/fslt.c:69:         ret 0x1 {const-unsigned-char literal}
                      00297 ;       .line   69; "../libsdcc/fslt.c" return (1);
0084   0B01           00298         MOVAI   0x01
0085   2800           00299         GOTO    _00112_DS_
                      00300 ;;[ICODE] ../libsdcc/fslt.c:69:  _iffalse_2($7) :
                      00301 ;;[ICODE] ../libsdcc/fslt.c:70:         ret 0x0 {const-unsigned-char literal}
0086                  00302 _00111_DS_
                      00303 ;       .line   70; "../libsdcc/fslt.c" return (0);
0086   0B00           00304         MOVAI   0x00
                      00305 ;;[ICODE] ../libsdcc/fslt.c:70:  _return($8) :
                      00306 ;;[ICODE] ../libsdcc/fslt.c:70:         eproc ___fslt [k1 lr0:0 so:0]{ ia0 a2p0 re0 rm0 nos0 ru0 dp0}{char function ( float fixed, float fixed) fixed}
0087                  00307 _00112_DS_
0087   000C           00308         RETURN  
                      00309 ; exit point of ___fslt
                      00310 
                      00311 
                      00312 ;       code size estimation:
                      00313 ;         136+    0 =   136 instructions (  272 byte)
                      00314 
                      00315         end
gpasm-1.7.0_beta1 (Jan 22 2015)fslt.asm           2015-1-22  23:30:20          PAGE  2


SYMBOL TABLE
  LABEL                             VALUE

BUZOUT                            00000005
C                                 00000000
DC                                00000001
DDR0                              00000045
DDR00                             00000000
DDR01                             00000001
DDR02                             00000002
DDR03                             00000003
DDR1                              00000046
DDR10                             00000000
DDR11                             00000001
DDR12                             00000002
DDR14                             00000004
DDR15                             00000005
DDR16                             00000006
DDR17                             00000007
EIS                               00000006
FSR                               00000004
GIE                               00000007
INDF                              00000000
INT0IE                            00000002
INT0IF                            00000002
INT0M                             00000006
INTECON                           0000000E
INTFLAG                           0000000F
KBIE                              00000001
KBIF                              00000001
KBIM                              00000009
KBIM0                             00000000
KBIM1                             00000001
KBIM2                             00000002
KBIM3                             00000003
KBIM4                             00000004
KBIM5                             00000005
KBIM6                             00000006
KBIM7                             00000007
MCR                               00000008
ODCON                             0000000C
P0                                00000005
P00                               00000000
P00PD                             00000000
P01                               00000001
P01PD                             00000001
P02                               00000002
P02PD                             00000002
P03                               00000003
P03PD                             00000003
P1                                00000006
P10                               00000000
P10OD                             00000000
P10PD                             00000004
P10PU                             00000000
P11                               00000001
P11OD                             00000001
P11PD                             00000005
P11PU                             00000001
P12                               00000002
P12OD                             00000002
P12PD                             00000006
P12PU                             00000002
P13                               00000003
P14                               00000004
P14OD                             00000004
P14PU                             00000004
P15                               00000005
P15OD                             00000005
P15PU                             00000005
P16                               00000006
P16OD                             00000006
P16PU                             00000006
P17                               00000007
P17OD                             00000007
P17PU                             00000007
PCL                               00000002
PCLATH                            0000000A
PD                                00000003
PDCON                             0000000B
PUCON                             0000000D
PWMOUT                            00000006
RST                               00000007
STATUS                            00000003
STK00                             00000000
STK01                             00000000
STK02                             00000000
STK03                             00000000
STK04                             00000000
STK05                             00000000
STK06                             00000000
T0CNT                             00000001
T0CR                              00000041
T0IE                              00000000
T0IF                              00000000
T0PTA                             00000003
T0PTS                             00000005
T0SE                              00000004
T1CNT                             0000004D
T1CR                              0000004C
T1DATA                            0000004F
T1IE                              00000001
T1IF                              00000000
T1LOAD                            0000004E
TBS                               00000007
TMCR                              0000004B
TMR1EN                            00000007
TO                                00000004
WDTEN                             00000007
Z                                 00000002
_00106_DS_                        0000005E
_00108_DS_                        00000060
_00111_DS_                        00000086
_00112_DS_                        00000087
_00122_DS_                        0000005A
_00123_DS_                        00000082
_CONFIG0                          00002000
_CONFIG1                          00002001
_CP_ALL                           00001FFF
_FCPU_2T                          00003F7F
_FCPU_4T                          00003FFF
_IRC_1M                           00003FCF
_IRC_2M                           00003FDF
_IRC_444K                         00003FAF
_IRC_4M                           00003FEF
_IRC_8M                           00003FFF
_MCLR_OFF                         00003FF7
_MCLR_ON                          00003FFF
_OSC_HXT                          00002FFF
_OSC_IRC                          000037FF
_OSC_IRC_RTC                      00003FFF
_OSC_LXT                          000027FF
_PWRT_OFF                         00003BFF
_PWRT_ON                          00003FFF
_RD_FROM_PIN                      00003FFF
_RD_FROM_REG                      00003EFF
_SMT_OFF                          00003FFF
_SMT_ON                           00003DFF
_TWDT_18MS                        00003FFF
_TWDT_288MS                       00003DFF
_TWDT_4P5MS                       00003EFF
_TWDT_72MS                        00003CFF
_VBOR_15                          00003FF8
_VBOR_18                          00003FF9
_VBOR_20                          00003FFA
_VBOR_22                          00003FFB
_VBOR_24                          00003FFC
_VBOR_26                          00003FFD
_VBOR_30                          00003FFE
_VBOR_36                          00003FFF
_WDT_OFF                          000037FF
_WDT_ON                           00003FFF
__30P011                          00000001
___fs2schar                       00000000
___fs2sint                        00000000
___fs2slong                       00000000
___fs2uchar                       00000000
___fs2uint                        00000000
___fs2ulong                       00000000
___fsadd                          00000000
___fsdiv                          00000000
___fseq                           00000000
___fsgt                           00000000
___fslt                           00000000
___fslt_fl1_1_22                  00000009
___fslt_fl2_1_22                  0000000D
___fsmul                          00000000
___fsneq                          00000000
___fssub                          00000000
___schar2fs                       00000000
___sint2fs                        00000000
___slong2fs                       00000000
___uchar2fs                       00000000
___uint2fs                        00000000
___ulong2fs                       00000000
r0x1008                           00000003
r0x1009                           00000002
r0x100A                           00000001
r0x100B                           00000000
r0x100C                           00000007
r0x100D                           00000006
r0x100E                           00000005
r0x100F                           00000004
r0x1010                           00000008

Errors   :     0
Warnings :     0 reported,     0 suppressed
Messages :     0 reported,     0 suppressed

