gpasm-2.0.0_beta2 (Nov  6 2017)_mullong.asm       2017-12-7  13:58:47          PAGE  1


LOC  OBJECT CODE     LINE SOURCE TEXT
  VALUE

                      00001 ;--------------------------------------------------------
                      00002 ; File Created by SN-SDCC : SinoMCU ANSI-C Compiler
                      00003 ; Version 1.0.0 (Sep 28 2017) (MINGW32)
                      00004 ; This file was generated Thu Dec 07 13:58:47 2017
                      00005 ;--------------------------------------------------------
                      00006 ; MC30/MC32 port for the RISC core
                      00007 ;--------------------------------------------------------
                      00008 ;       .file   "../libsdcc/_mullong.c"
                      00009         list    p=3264
                      00010         radix dec
                      00011         include "3264.inc"
                      00001                 LIST
                      00002 ;mc32p64.inc    Standard Header File, Version 1.00 by Sinomcu
                      00374                 LIST
                      00012 ;--------------------------------------------------------
                      00013 ; external declarations
                      00014 ;--------------------------------------------------------
                      00015 
                      00016         extern STK06
                      00017         extern STK05
                      00018         extern STK04
                      00019         extern STK03
                      00020         extern STK02
                      00021         extern STK01
                      00022         extern STK00
                      00023 ;--------------------------------------------------------
                      00024 ; global declarations
                      00025 ;--------------------------------------------------------
                      00026         global  __mullong
                      00027 
                      00028 ;--------------------------------------------------------
                      00029 ; global definitions
                      00030 ;--------------------------------------------------------
                      00031 ;--------------------------------------------------------
                      00032 ; absolute symbol definitions
                      00033 ;--------------------------------------------------------
                      00034 ;--------------------------------------------------------
                      00035 ; compiler-defined variables
                      00036 ;--------------------------------------------------------
                      00037 UDL__mullong_0  udata
0000                  00038 r0x1003 res     1
0000                  00039 r0x1002 res     1
0001                  00040 r0x1001 res     1
0001                  00041 r0x1000 res     1
0002                  00042 r0x1007 res     1
0002                  00043 r0x1006 res     1
0003                  00044 r0x1005 res     1
0003                  00045 r0x1004 res     1
0004                  00046 r0x1008 res     1
0004                  00047 r0x1009 res     1
0005                  00048 r0x100A res     1
0005                  00049 r0x100B res     1
0006                  00050 r0x100C res     1
0006                  00051 r0x100D res     1
0007                  00052 r0x100E res     1
0007                  00053 r0x100F res     1
0008                  00054 r0x1010 res     1
                      00055 ;--------------------------------------------------------
                      00056 ; initialized data
                      00057 ;--------------------------------------------------------
                      00058 
                      00059 ;@Allocation info for local variables in function '_mullong'
                      00060 ;@_mullong b                         Allocated to registers r0x1007 r0x1006 r0x1005 r0x1004 ;size:4
                      00061 ;@_mullong a                         Allocated to registers r0x1003 r0x1002 r0x1001 r0x1000 ;size:4
                      00062 ;@_mullong result                    Allocated to registers r0x1008 r0x1009 r0x100A r0x100B ;size:4
                      00063 ;@_mullong i                         Allocated to registers r0x100C ;size:1
                      00064 ;@end Allocation info for local variables in function '_mullong';
                      00065 
                      00066 ;--------------------------------------------------------
                      00067 ; overlayable items in internal ram 
                      00068 ;--------------------------------------------------------
                      00069 ;       udata_ovr
                      00070 ;--------------------------------------------------------
                      00071 ; code
                      00072 ;--------------------------------------------------------
                      00073 code__mullong   code
                      00074 ;***
                      00075 ;  pBlock Stats: dbName = C
                      00076 ;***
                      00077 ;entry:  __mullong      ;Function start
                      00078 ; 2 exit points
                      00079 ;has an exit
                      00080 ;24 compiler assigned registers:
                      00081 ;   r0x1000
                      00082 ;   STK00
                      00083 ;   r0x1001
                      00084 ;   STK01
                      00085 ;   r0x1002
                      00086 ;   STK02
                      00087 ;   r0x1003
                      00088 ;   STK03
                      00089 ;   r0x1004
                      00090 ;   STK04
                      00091 ;   r0x1005
                      00092 ;   STK05
                      00093 ;   r0x1006
                      00094 ;   STK06
                      00095 ;   r0x1007
                      00096 ;   r0x1008
                      00097 ;   r0x1009
                      00098 ;   r0x100A
                      00099 ;   r0x100B
                      00100 ;   r0x100C
                      00101 ;   r0x100D
                      00102 ;   r0x100E
                      00103 ;   r0x100F
                      00104 ;   r0x1010
                      00105 ;; Starting pCode block
                      00106 ;;[ICODE] ../libsdcc/_mullong.c:33:  _entry($16) :
                      00107 ;;[ICODE] ../libsdcc/_mullong.c:33:     proc __mullong [k1 lr0:0 so:0]{ ia0 a2p0 re0 rm0 nos0 ru0 dp0}{long-int function ( long-int fixed, long-int fixed) fixed}
0000                  00108 __mullong       ;Function start
                      00109 ; 2 exit points
                      00110 ;;[ICODE] ../libsdcc/_mullong.c:33: iTemp0 [k2 lr3:43 so:0]{ ia0 a2p0 re1 rm0 nos0 ru0 dp0}{long-int fixed}{ sir@ __mullong_a_1_1}[r0x1000 r0x1001 r0x1002 r0x1003 ] = recv __mullong [k1 lr0:0 so:0]{ ia0 a2p0 re0 rm0 nos0 ru0 dp0}{long-int function ( long-int fixed, long-int fixed) fixed}
                      00111 ;       .line   33; "../libsdcc/_mullong.c"     _mullong (long a, long b)
0000   5600           00112         MOVRA   r0x1000
0001   5800           00113         MOVAR   STK00
0002   5600           00114         MOVRA   r0x1001
0003   5800           00115         MOVAR   STK01
0004   5600           00116         MOVRA   r0x1002
0005   5800           00117         MOVAR   STK02
0006   5600           00118         MOVRA   r0x1003
                      00119 ;;[ICODE] ../libsdcc/_mullong.c:33: iTemp1 [k4 lr4:43 so:0]{ ia0 a2p0 re1 rm0 nos0 ru0 dp0}{long-int fixed}{ sir@ __mullong_b_1_1}[r0x1004 r0x1005 r0x1006 r0x1007 ] = recv __mullong [k1 lr0:0 so:0]{ ia0 a2p0 re0 rm0 nos0 ru0 dp0}{long-int function ( long-int fixed, long-int fixed) fixed}
0007   5800           00120         MOVAR   STK03
0008   5600           00121         MOVRA   r0x1004
0009   5800           00122         MOVAR   STK04
000A   5600           00123         MOVRA   r0x1005
000B   5800           00124         MOVAR   STK05
000C   5600           00125         MOVRA   r0x1006
000D   5800           00126         MOVAR   STK06
000E   5600           00127         MOVRA   r0x1007
                      00128 ;;[ICODE] ../libsdcc/_mullong.c:35:     iTemp2 [k6 lr5:44 so:0]{ ia0 a2p0 re1 rm0 nos0 ru0 dp0}{long-int fixed}{ sir@ __mullong_result_1_2}[r0x1008 r0x1009 r0x100A r0x100B ] := 0x0 {long-int literal}
                      00129 ;       .line   35; "../libsdcc/_mullong.c"     long result = 0;
000F   7600           00130         CLRR    r0x1008
0010   7600           00131         CLRR    r0x1009
0011   7600           00132         CLRR    r0x100A
0012   7600           00133         CLRR    r0x100B
                      00134 ;;[ICODE] ../libsdcc/_mullong.c:39:     iTemp3 [k8 lr6:43 so:0]{ ia0 a2p0 re1 rm0 nos0 ru0 dp0}{unsigned-char fixed}{ sir@ __mullong_i_1_2}[r0x100C ] := 0x8 {unsigned-char literal}
                      00135 ;       .line   39; "../libsdcc/_mullong.c"     for (i = 0; i < 8u; i++) {
0013   3C08           00136         MOVAI   0x08
0014   5600           00137         MOVRA   r0x100C
                      00138 ;;[ICODE] ../libsdcc/_mullong.c:39:  _forcontinue_0($14) :
                      00139 ;;[ICODE] ../libsdcc/_mullong.c:41:     iTemp4 [k10 lr9:10 so:0]{ ia0 a2p0 re0 rm0 nos0 ru0 dp0}{long-int fixed} = iTemp0 [k2 lr3:43 so:0]{ ia0 a2p0 re1 rm0 nos0 ru0 dp0}{long-int fixed}{ sir@ __mullong_a_1_1}[r0x1000 r0x1001 r0x1002 r0x1003 ] & 0x1 {long-int literal}
0015                  00140 _00118_DS_
                      00141 ;       .line   41; "../libsdcc/_mullong.c"     if (a & 0x0001u) result += b;
0015   E000           00142         JBSET   r0x1003,0
0016   A000           00143         GOTO    _00109_DS_
                      00144 ;;[ICODE] ../libsdcc/_mullong.c:41:     if iTemp4 [k10 lr9:10 so:0]{ ia0 a2p0 re0 rm0 nos0 ru0 dp0}{long-int fixed} == 0 goto _andif_0($5)
                      00145 ;;[ICODE] ../libsdcc/_mullong.c:41:     iTemp2 [k6 lr5:44 so:0]{ ia0 a2p0 re1 rm0 nos0 ru0 dp0}{long-int fixed}{ sir@ __mullong_result_1_2}[r0x1008 r0x1009 r0x100A r0x100B ] = iTemp2 [k6 lr5:44 so:0]{ ia0 a2p0 re1 rm0 nos0 ru0 dp0}{long-int fixed}{ sir@ __mullong_result_1_2}[r0x1008 r0x1009 r0x100A r0x100B ] + iTemp1 [k4 lr4:43 so:0]{ ia0 a2p0 re1 rm0 nos0 ru0 dp0}{long-int fixed}{ sir@ __mullong_b_1_1}[r0x1004 r0x1005 r0x1006 r0x1007 ]
0017   5800           00146         MOVAR   r0x1007
0018   7E00           00147         ADDRA   r0x1008
0019   5800           00148         MOVAR   r0x1006
001A   F1B7           00149         JBCLR   STATUS,0
001B   6000           00150         JZAR    r0x1006
001C   7E00           00151         ADDRA   r0x1009
001D   5800           00152         MOVAR   r0x1005
001E   F1B7           00153         JBCLR   STATUS,0
001F   6000           00154         JZAR    r0x1005
0020   7E00           00155         ADDRA   r0x100A
0021   5800           00156         MOVAR   r0x1004
0022   F1B7           00157         JBCLR   STATUS,0
0023   6000           00158         JZAR    r0x1004
0024   7E00           00159         ADDRA   r0x100B
                      00160 ;;[ICODE] ../libsdcc/_mullong.c:42:  _andif_0($5) :
                      00161 ;;[ICODE] ../libsdcc/_mullong.c:42:     iTemp6 [k12 lr14:15 so:0]{ ia0 a2p0 re0 rm0 nos0 ru0 dp0}{unsigned-long-int register}[r0x100D r0x100E r0x100F r0x1010 ] = (unsigned-long-int register)iTemp0 [k2 lr3:43 so:0]{ ia0 a2p0 re1 rm0 nos0 ru0 dp0}{long-int fixed}{ sir@ __mullong_a_1_1}[r0x1000 r0x1001 r0x1002 r0x1003 ]
0025                  00162 _00109_DS_
                      00163 ;       .line   42; "../libsdcc/_mullong.c"     if (sizeof (a) > 1 && (a & 0x00000100ul)) result += (b << 8u);
0025   5800           00164         MOVAR   r0x1003
0026   5600           00165         MOVRA   r0x100D
0027   5800           00166         MOVAR   r0x1002
0028   5600           00167         MOVRA   r0x100E
0029   5800           00168         MOVAR   r0x1001
002A   5600           00169         MOVRA   r0x100F
002B   5800           00170         MOVAR   r0x1000
002C   5600           00171         MOVRA   r0x1010
                      00172 ;;[ICODE] ../libsdcc/_mullong.c:42:     iTemp7 [k13 lr15:16 so:0]{ ia0 a2p0 re0 rm0 nos0 ru0 dp0}{unsigned-long-int register} = iTemp6 [k12 lr14:15 so:0]{ ia0 a2p0 re0 rm0 nos0 ru0 dp0}{unsigned-long-int register}[r0x100D r0x100E r0x100F r0x1010 ] & 0x100 {const-unsigned-long-int literal}
002D   E000           00173         JBSET   r0x100E,0
002E   A000           00174         GOTO    _00112_DS_
                      00175 ;;[ICODE] ../libsdcc/_mullong.c:42:     if iTemp7 [k13 lr15:16 so:0]{ ia0 a2p0 re0 rm0 nos0 ru0 dp0}{unsigned-long-int register} == 0 goto _andif_1($8)
                      00176 ;;[ICODE] ../libsdcc/_mullong.c:42:     iTemp8 [k14 lr17:18 so:0]{ ia0 a2p0 re0 rm0 nos0 ru0 dp0}{long-int fixed}[r0x100D r0x100E r0x100F r0x1010 ] = iTemp1 [k4 lr4:43 so:0]{ ia0 a2p0 re1 rm0 nos0 ru0 dp0}{long-int fixed}{ sir@ __mullong_b_1_1}[r0x1004 r0x1005 r0x1006 r0x1007 ] << 0x8 {const-unsigned-int literal}
002F   5800           00177         MOVAR   r0x1005
0030   5600           00178         MOVRA   r0x1010
0031   5800           00179         MOVAR   r0x1006
0032   5600           00180         MOVRA   r0x100F
                      00181 ;;100   MOVAR   r0x1007
0033   7600           00182         CLRR    r0x100D
                      00183 ;;[ICODE] ../libsdcc/_mullong.c:42:     iTemp2 [k6 lr5:44 so:0]{ ia0 a2p0 re1 rm0 nos0 ru0 dp0}{long-int fixed}{ sir@ __mullong_result_1_2}[r0x1008 r0x1009 r0x100A r0x100B ] = iTemp2 [k6 lr5:44 so:0]{ ia0 a2p0 re1 rm0 nos0 ru0 dp0}{long-int fixed}{ sir@ __mullong_result_1_2}[r0x1008 r0x1009 r0x100A r0x100B ] + iTemp8 [k14 lr17:18 so:0]{ ia0 a2p0 re0 rm0 nos0 ru0 dp0}{long-int fixed}[r0x100D r0x100E r0x100F r0x1010 ]
0034   3C00           00184         MOVAI   0x00
0035   7E00           00185         ADDRA   r0x1008
                      00186 ;;99    MOVAR   r0x100E
0036   5800           00187         MOVAR   r0x1007
0037   5600           00188         MOVRA   r0x100E
0038   F1B7           00189         JBCLR   STATUS,0
0039   6000           00190         JZAR    r0x100E
003A   7E00           00191         ADDRA   r0x1009
003B   5800           00192         MOVAR   r0x100F
003C   F1B7           00193         JBCLR   STATUS,0
003D   6000           00194         JZAR    r0x100F
003E   7E00           00195         ADDRA   r0x100A
003F   5800           00196         MOVAR   r0x1010
0040   F1B7           00197         JBCLR   STATUS,0
0041   6000           00198         JZAR    r0x1010
0042   7E00           00199         ADDRA   r0x100B
                      00200 ;;[ICODE] ../libsdcc/_mullong.c:43:  _andif_1($8) :
                      00201 ;;[ICODE] ../libsdcc/_mullong.c:43:     iTemp10 [k16 lr21:22 so:0]{ ia0 a2p0 re0 rm0 nos0 ru0 dp0}{unsigned-long-int register}[r0x100D r0x100E r0x100F r0x1010 ] = (unsigned-long-int register)iTemp0 [k2 lr3:43 so:0]{ ia0 a2p0 re1 rm0 nos0 ru0 dp0}{long-int fixed}{ sir@ __mullong_a_1_1}[r0x1000 r0x1001 r0x1002 r0x1003 ]
0043                  00202 _00112_DS_
                      00203 ;       .line   43; "../libsdcc/_mullong.c"     if (sizeof (a) > 2 && (a & 0x00010000ul)) result += (b << 16u);
0043   5800           00204         MOVAR   r0x1003
0044   5600           00205         MOVRA   r0x100D
0045   5800           00206         MOVAR   r0x1002
0046   5600           00207         MOVRA   r0x100E
0047   5800           00208         MOVAR   r0x1001
0048   5600           00209         MOVRA   r0x100F
0049   5800           00210         MOVAR   r0x1000
004A   5600           00211         MOVRA   r0x1010
                      00212 ;;[ICODE] ../libsdcc/_mullong.c:43:     iTemp11 [k17 lr22:23 so:0]{ ia0 a2p0 re0 rm0 nos0 ru0 dp0}{unsigned-long-int register} = iTemp10 [k16 lr21:22 so:0]{ ia0 a2p0 re0 rm0 nos0 ru0 dp0}{unsigned-long-int register}[r0x100D r0x100E r0x100F r0x1010 ] & 0x10000 {const-unsigned-long-int literal}
004B   E000           00213         JBSET   r0x100F,0
004C   A000           00214         GOTO    _00115_DS_
                      00215 ;;[ICODE] ../libsdcc/_mullong.c:43:     if iTemp11 [k17 lr22:23 so:0]{ ia0 a2p0 re0 rm0 nos0 ru0 dp0}{unsigned-long-int register} == 0 goto _andif_2($11)
                      00216 ;;[ICODE] ../libsdcc/_mullong.c:43:     iTemp12 [k18 lr24:25 so:0]{ ia0 a2p0 re0 rm0 nos0 ru0 dp0}{long-int fixed}[r0x100D r0x100E r0x100F r0x1010 ] = iTemp1 [k4 lr4:43 so:0]{ ia0 a2p0 re1 rm0 nos0 ru0 dp0}{long-int fixed}{ sir@ __mullong_b_1_1}[r0x1004 r0x1005 r0x1006 r0x1007 ] << 0x10 {const-unsigned-int literal}
004D   5800           00217         MOVAR   r0x1006
004E   5600           00218         MOVRA   r0x1010
004F   5800           00219         MOVAR   r0x1007
0050   5600           00220         MOVRA   r0x100F
0051   7600           00221         CLRR    r0x100E
0052   7600           00222         CLRR    r0x100D
                      00223 ;;[ICODE] ../libsdcc/_mullong.c:43:     iTemp2 [k6 lr5:44 so:0]{ ia0 a2p0 re1 rm0 nos0 ru0 dp0}{long-int fixed}{ sir@ __mullong_result_1_2}[r0x1008 r0x1009 r0x100A r0x100B ] = iTemp2 [k6 lr5:44 so:0]{ ia0 a2p0 re1 rm0 nos0 ru0 dp0}{long-int fixed}{ sir@ __mullong_result_1_2}[r0x1008 r0x1009 r0x100A r0x100B ] + iTemp12 [k18 lr24:25 so:0]{ ia0 a2p0 re0 rm0 nos0 ru0 dp0}{long-int fixed}[r0x100D r0x100E r0x100F r0x1010 ]
0053   3C00           00224         MOVAI   0x00
0054   7E00           00225         ADDRA   r0x1008
0055   3C00           00226         MOVAI   0x00
0056   F1B7           00227         JBCLR   STATUS,0
0057   6000           00228         JZAR    r0x100E
0058   7E00           00229         ADDRA   r0x1009
0059   5800           00230         MOVAR   r0x100F
005A   F1B7           00231         JBCLR   STATUS,0
005B   6000           00232         JZAR    r0x100F
005C   7E00           00233         ADDRA   r0x100A
005D   5800           00234         MOVAR   r0x1010
005E   F1B7           00235         JBCLR   STATUS,0
005F   6000           00236         JZAR    r0x1010
0060   7E00           00237         ADDRA   r0x100B
                      00238 ;;[ICODE] ../libsdcc/_mullong.c:44:  _andif_2($11) :
                      00239 ;;[ICODE] ../libsdcc/_mullong.c:44:     iTemp14 [k20 lr28:29 so:0]{ ia0 a2p0 re0 rm0 nos0 ru0 dp0}{unsigned-long-int register}[r0x100D r0x100E r0x100F r0x1010 ] = (unsigned-long-int register)iTemp0 [k2 lr3:43 so:0]{ ia0 a2p0 re1 rm0 nos0 ru0 dp0}{long-int fixed}{ sir@ __mullong_a_1_1}[r0x1000 r0x1001 r0x1002 r0x1003 ]
0061                  00240 _00115_DS_
                      00241 ;       .line   44; "../libsdcc/_mullong.c"     if (sizeof (a) > 3 && (a & 0x01000000ul)) result += (b << 24u);
0061   5800           00242         MOVAR   r0x1003
0062   5600           00243         MOVRA   r0x100D
0063   5800           00244         MOVAR   r0x1002
0064   5600           00245         MOVRA   r0x100E
0065   5800           00246         MOVAR   r0x1001
0066   5600           00247         MOVRA   r0x100F
0067   5800           00248         MOVAR   r0x1000
0068   5600           00249         MOVRA   r0x1010
                      00250 ;;[ICODE] ../libsdcc/_mullong.c:44:     iTemp15 [k21 lr29:30 so:0]{ ia0 a2p0 re0 rm0 nos0 ru0 dp0}{unsigned-long-int register} = iTemp14 [k20 lr28:29 so:0]{ ia0 a2p0 re0 rm0 nos0 ru0 dp0}{unsigned-long-int register}[r0x100D r0x100E r0x100F r0x1010 ] & 0x1000000 {const-unsigned-long-int literal}
0069   E000           00251         JBSET   r0x1010,0
006A   A000           00252         GOTO    _00114_DS_
                      00253 ;;[ICODE] ../libsdcc/_mullong.c:44:     if iTemp15 [k21 lr29:30 so:0]{ ia0 a2p0 re0 rm0 nos0 ru0 dp0}{unsigned-long-int register} == 0 goto _iffalse_3($10)
                      00254 ;;[ICODE] ../libsdcc/_mullong.c:44:     iTemp16 [k22 lr31:32 so:0]{ ia0 a2p0 re0 rm0 nos0 ru0 dp0}{long-int fixed}[r0x100D r0x100E r0x100F r0x1010 ] = iTemp1 [k4 lr4:43 so:0]{ ia0 a2p0 re1 rm0 nos0 ru0 dp0}{long-int fixed}{ sir@ __mullong_b_1_1}[r0x1004 r0x1005 r0x1006 r0x1007 ] << 0x18 {const-unsigned-int literal}
006B   5800           00255         MOVAR   r0x1007
006C   5600           00256         MOVRA   r0x1010
006D   7600           00257         CLRR    r0x100F
006E   7600           00258         CLRR    r0x100E
006F   7600           00259         CLRR    r0x100D
                      00260 ;;[ICODE] ../libsdcc/_mullong.c:44:     iTemp2 [k6 lr5:44 so:0]{ ia0 a2p0 re1 rm0 nos0 ru0 dp0}{long-int fixed}{ sir@ __mullong_result_1_2}[r0x1008 r0x1009 r0x100A r0x100B ] = iTemp2 [k6 lr5:44 so:0]{ ia0 a2p0 re1 rm0 nos0 ru0 dp0}{long-int fixed}{ sir@ __mullong_result_1_2}[r0x1008 r0x1009 r0x100A r0x100B ] + iTemp16 [k22 lr31:32 so:0]{ ia0 a2p0 re0 rm0 nos0 ru0 dp0}{long-int fixed}[r0x100D r0x100E r0x100F r0x1010 ]
0070   3C00           00261         MOVAI   0x00
0071   7E00           00262         ADDRA   r0x1008
0072   3C00           00263         MOVAI   0x00
0073   F1B7           00264         JBCLR   STATUS,0
0074   6000           00265         JZAR    r0x100E
0075   7E00           00266         ADDRA   r0x1009
0076   5800           00267         MOVAR   r0x100F
0077   F1B7           00268         JBCLR   STATUS,0
0078   6000           00269         JZAR    r0x100F
0079   7E00           00270         ADDRA   r0x100A
007A   5800           00271         MOVAR   r0x1010
007B   F1B7           00272         JBCLR   STATUS,0
007C   6000           00273         JZAR    r0x1010
007D   7E00           00274         ADDRA   r0x100B
                      00275 ;;[ICODE] ../libsdcc/_mullong.c:44:  _iffalse_3($10) :
                      00276 ;;[ICODE] ../libsdcc/_mullong.c:45:     iTemp18 [k24 lr35:36 so:0]{ ia0 a2p0 re0 rm0 nos0 ru0 dp0}{unsigned-long-int fixed}[r0x100D r0x100E r0x100F r0x1010 ] = (unsigned-long-int fixed)iTemp0 [k2 lr3:43 so:0]{ ia0 a2p0 re1 rm0 nos0 ru0 dp0}{long-int fixed}{ sir@ __mullong_a_1_1}[r0x1000 r0x1001 r0x1002 r0x1003 ]
007E                  00277 _00114_DS_
                      00278 ;       .line   45; "../libsdcc/_mullong.c"     a = ((unsigned long)a) >> 1u;
007E   5800           00279         MOVAR   r0x1003
007F   5600           00280         MOVRA   r0x100D
0080   5800           00281         MOVAR   r0x1002
0081   5600           00282         MOVRA   r0x100E
0082   5800           00283         MOVAR   r0x1001
0083   5600           00284         MOVRA   r0x100F
0084   5800           00285         MOVAR   r0x1000
0085   5600           00286         MOVRA   r0x1010
                      00287 ;;[ICODE] ../libsdcc/_mullong.c:45:     iTemp0 [k2 lr3:43 so:0]{ ia0 a2p0 re1 rm0 nos0 ru0 dp0}{long-int fixed}{ sir@ __mullong_a_1_1}[r0x1000 r0x1001 r0x1002 r0x1003 ] = iTemp18 [k24 lr35:36 so:0]{ ia0 a2p0 re0 rm0 nos0 ru0 dp0}{unsigned-long-int fixed}[r0x100D r0x100E r0x100F r0x1010 ] >> 0x1 {const-unsigned-int literal}
                      00288 ;;shiftRight_Left2ResultLit:5215: shCount=1, size=4, sign=0, same=0, offr=0
0086   D1B7           00289         BCLR    STATUS,0
0087   4C00           00290         RRAR    r0x1010
0088   5600           00291         MOVRA   r0x1000
0089   4C00           00292         RRAR    r0x100F
008A   5600           00293         MOVRA   r0x1001
008B   4C00           00294         RRAR    r0x100E
008C   5600           00295         MOVRA   r0x1002
008D   4C00           00296         RRAR    r0x100D
008E   5600           00297         MOVRA   r0x1003
                      00298 ;;[ICODE] ../libsdcc/_mullong.c:46:     iTemp1 [k4 lr4:43 so:0]{ ia0 a2p0 re1 rm0 nos0 ru0 dp0}{long-int fixed}{ sir@ __mullong_b_1_1}[r0x1004 r0x1005 r0x1006 r0x1007 ] = iTemp1 [k4 lr4:43 so:0]{ ia0 a2p0 re1 rm0 nos0 ru0 dp0}{long-int fixed}{ sir@ __mullong_b_1_1}[r0x1004 r0x1005 r0x1006 r0x1007 ] << 0x1 {const-unsigned-int literal}
                      00299 ;       .line   46; "../libsdcc/_mullong.c"     b <<= 1u;
008F   D1B7           00300         BCLR    STATUS,0
0090   5200           00301         RLR     r0x1007
0091   5200           00302         RLR     r0x1006
0092   5200           00303         RLR     r0x1005
0093   5200           00304         RLR     r0x1004
                      00305 ;;[ICODE] ../libsdcc/_mullong.c:46:     iTemp21 [k27 lr40:41 so:0]{ ia0 a2p0 re0 rm0 nos0 ru0 dp0}{char register}[r0x100D ] = (char register)iTemp3 [k8 lr6:43 so:0]{ ia0 a2p0 re1 rm0 nos0 ru0 dp0}{unsigned-char fixed}{ sir@ __mullong_i_1_2}[r0x100C ]
0094   5800           00306         MOVAR   r0x100C
0095   5600           00307         MOVRA   r0x100D
                      00308 ;;[ICODE] ../libsdcc/_mullong.c:46:     iTemp3 [k8 lr6:43 so:0]{ ia0 a2p0 re1 rm0 nos0 ru0 dp0}{unsigned-char fixed}{ sir@ __mullong_i_1_2}[r0x100C ] = iTemp21 [k27 lr40:41 so:0]{ ia0 a2p0 re0 rm0 nos0 ru0 dp0}{char register}[r0x100D ] - 0x1 {const-char literal}
0096   6C00           00309         DECAR   r0x100D
0097   5600           00310         MOVRA   r0x100C
                      00311 ;;[ICODE] ../libsdcc/_mullong.c:39:     if iTemp3 [k8 lr6:43 so:0]{ ia0 a2p0 re1 rm0 nos0 ru0 dp0}{unsigned-char fixed}{ sir@ __mullong_i_1_2}[r0x100C ] != 0 goto _forcontinue_0($14)
                      00312 ;       .line   39; "../libsdcc/_mullong.c"     for (i = 0; i < 8u; i++) {
0098   3C00           00313         MOVAI   0x00
0099   5C00           00314         ORAR    r0x100C
009A   E5B7           00315         JBSET   STATUS,2
009B   A000           00316         GOTO    _00118_DS_
                      00317 ;;[ICODE] ../libsdcc/_mullong.c:49:     ret iTemp2 [k6 lr5:44 so:0]{ ia0 a2p0 re1 rm0 nos0 ru0 dp0}{long-int fixed}{ sir@ __mullong_result_1_2}[r0x1008 r0x1009 r0x100A r0x100B ]
                      00318 ;       .line   49; "../libsdcc/_mullong.c"     return result;
009C   5800           00319         MOVAR   r0x1008
009D   5600           00320         MOVRA   STK02
009E   5800           00321         MOVAR   r0x1009
009F   5600           00322         MOVRA   STK01
00A0   5800           00323         MOVAR   r0x100A
00A1   5600           00324         MOVRA   STK00
00A2   5800           00325         MOVAR   r0x100B
                      00326 ;;[ICODE] ../libsdcc/_mullong.c:49:  _return($15) :
                      00327 ;;[ICODE] ../libsdcc/_mullong.c:49:     eproc __mullong [k1 lr0:0 so:0]{ ia0 a2p0 re0 rm0 nos0 ru0 dp0}{long-int function ( long-int fixed, long-int fixed) fixed}
00A3   000C           00328         RETURN  
                      00329 ; exit point of __mullong
                      00330 
                      00331 
                      00332 ;       code size estimation:
                      00333 ;         164+    0 =   164 instructions (  328 byte)
                      00334 
                      00335         end
gpasm-2.0.0_beta2 (Nov  6 2017)_mullong.asm       2017-12-7  13:58:47          PAGE  2


SYMBOL TABLE
  LABEL                             VALUE

ADCR0                             000001EC
ADCR1                             000001ED
ADEOC                             00000001
ADIE                              00000006
ADIF                              00000006
ADIOS0                            00000000
ADIOS1                            00000001
ADIOS3                            00000003
ADIOS4                            00000004
ADIOS5                            00000005
ADIOS7                            00000007
ADOIS2                            00000002
ADOIS6                            00000006
ADON                              00000000
ADRH                              000001EE
ADRL                              000001EF
BUZ0OE                            00000005
BUZ1OE                            00000005
C                                 00000000
CLKS                              00000002
DC                                00000001
FSR                               000001B4
FSR0                              000001B4
FSR1                              000001B5
GIE                               00000007
HAAS                              00000006
HBB                               00000005
HCF                               00000007
HEN                               00000001
HFEN                              00000000
HIBYTE                            000001B3
HTX                               00000004
I2CADDR                           000001F1
I2CCR                             000001F0
I2CDATA                           000001F2
I2CIE                             00000005
I2CIF                             00000005
INDF                              000001B0
INDF0                             000001B0
INDF1                             000001B1
INDF2                             000001B2
INDF3                             000001B9
INT0IE                            00000002
INT0IF                            00000002
INT1IE                            00000003
INT1IF                            00000003
INTE                              000001BA
INTF                              000001BB
IOP0                              000001C0
IOP1                              000001C4
IOP2                              000001C8
IOP3                              000001CC
LFEN                              00000001
MCR                               000001B8
OEP0                              000001C1
OEP1                              000001C5
OEP2                              000001C9
OEP3                              000001CD
OSCM                              000001BC
P00                               00000000
P00OE                             00000000
P00PU                             00000000
P01                               00000001
P01OE                             00000001
P01PU                             00000001
P02                               00000002
P02OE                             00000002
P02PU                             00000002
P03                               00000003
P03OE                             00000003
P03PU                             00000003
P04                               00000004
P04OE                             00000004
P04PU                             00000004
P05                               00000005
P05OE                             00000005
P05PU                             00000005
P06                               00000006
P06OE                             00000006
P07                               00000007
P07OE                             00000007
P10                               00000000
P10OE                             00000000
P10PU                             00000000
P11                               00000001
P11OE                             00000001
P11PU                             00000001
P12                               00000002
P12OE                             00000002
P12PU                             00000002
P13                               00000003
P13OE                             00000003
P13PU                             00000003
P14                               00000004
P14OE                             00000004
P14PU                             00000004
P15                               00000005
P15OE                             00000005
P15PU                             00000005
P16                               00000006
P16OE                             00000006
P16PU                             00000006
P17                               00000007
P17OE                             00000007
P17PU                             00000007
P20                               00000000
P20OE                             00000000
P20PU                             00000000
P21                               00000001
P21OE                             00000001
P21PU                             00000001
P22                               00000002
P22OE                             00000002
P22PU                             00000002
P23                               00000003
P23OE                             00000003
P23PU                             00000003
P24                               00000004
P24OE                             00000004
P24PU                             00000004
P25                               00000005
P25OE                             00000005
P25PU                             00000005
P26                               00000006
P26OE                             00000006
P26PU                             00000006
P27                               00000007
P27OE                             00000007
P27PU                             00000007
P30                               00000000
P30OE                             00000000
P30PU                             00000000
P31                               00000001
P31OE                             00000001
P31PU                             00000001
PCL                               000001B6
PD                                00000004
PUP0                              000001C2
PUP1                              000001C6
PUP2                              000001CA
PUP3                              000001CE
PWM0OE                            00000006
PWM1OE                            00000006
RXAK                              00000000
SRW                               00000002
STATUS                            000001B7
STBH                              00000004
STBL                              00000005
STK00                             00000000
STK01                             00000000
STK02                             00000000
STK03                             00000000
STK04                             00000000
STK05                             00000000
STK06                             00000000
T0CNT                             000001D1
T0CR                              000001D0
T0DATA                            000001D3
T0IE                              00000000
T0IF                              00000000
T0LOAD                            000001D2
T1CNT                             000001D5
T1CR                              000001D4
T1DATA                            000001D7
T1IE                              00000001
T1IF                              00000001
T1LOAD                            000001D6
T2CNTH                            000001D9
T2CNTL                            000001DA
T2CR                              000001D8
T2IE                              00000004
T2IF                              00000004
T2LOADH                           000001DB
T2LOADL                           000001DC
T2MOD                             00000005
TC0EN                             00000007
TC1EN                             00000007
TC2EN                             00000007
TK0CLR                            00000003
TK0CNTH                           000001E2
TK0CNTL                           000001E3
TK0CRH                            000001E0
TK0CRL                            000001E1
TK0IE                             00000006
TK0IF                             00000007
TK0JE                             00000005
TK0RCE                            00000004
TK1CLR                            00000003
TK1CNTH                           000001E6
TK1CNTL                           000001E7
TK1CRH                            000001E4
TK1CRL                            000001E5
TK1IE                             00000006
TK1IF                             00000007
TK1JE                             00000005
TK1RCE                            00000004
TK2CLR                            00000003
TK2CNTH                           000001EA
TK2CNTL                           000001EB
TK2CRH                            000001E8
TK2CRL                            000001E9
TK2IE                             00000006
TK2IF                             00000007
TK2JE                             00000005
TK2RCE                            00000004
TO                                00000005
TXAK                              00000003
Z                                 00000002
_00109_DS_                        00000025
_00112_DS_                        00000043
_00114_DS_                        0000007E
_00115_DS_                        00000061
_00118_DS_                        00000015
_CONFIG0                          00008000
_CONFIG1                          00008001
_CP_ALL                           00007FFF
_FCPU_128T                        0000FFEF
_FCPU_16T                         0000FFBF
_FCPU_256T                        0000FFFF
_FCPU_2T                          0000FF8F
_FCPU_32T                         0000FFCF
_FCPU_4T                          0000FF9F
_FCPU_64T                         0000FFDF
_FCPU_8T                          0000FFAF
_HRC_LRC                          0000FCFF
_HRC_LXT                          0000FDFF
_HXT_LRC                          0000FEFF
_MCLR_OFF                         0000FF7F
_MCLR_ON                          0000FFFF
_PTWRT_16_1024                    0000FFF7
_PTWRT_16_16                      0000DFF7
_PTWRT_256_256                    0000DFFF
_PTWRT_256_4096                   0000FFFF
_PTWRT_4_4                        0000DFF3
_PTWRT_4_512                      0000FFF3
_PTWRT_64_2048                    0000FFFB
_PTWRT_64_64                      0000DFFB
_VLVR_160                         0000E3FF
_VLVR_185                         0000E7FF
_VLVR_205                         0000EBFF
_VLVR_218                         0000EFFF
_VLVR_232                         0000F3FF
_VLVR_245                         0000F7FF
_VLVR_305                         0000FBFF
_VLVR_360                         0000FFFF
_WDT_ALWAYS_OFF                   0000FFFC
_WDT_ALWAYS_ON                    0000FFFF
_WDT_SLEEP_OFF                    0000FFFD
__32P64                           00000001
__mullong                         00000000
r0x1000                           00000003
r0x1001                           00000002
r0x1002                           00000001
r0x1003                           00000000
r0x1004                           00000007
r0x1005                           00000006
r0x1006                           00000005
r0x1007                           00000004
r0x1008                           00000008
r0x1009                           00000009
r0x100A                           0000000A
r0x100B                           0000000B
r0x100C                           0000000C
r0x100D                           0000000D
r0x100E                           0000000E
r0x100F                           0000000F
r0x1010                           00000010

Errors   :     0
Warnings :     0 reported,     0 suppressed
Messages :     0 reported,     0 suppressed

