gpasm-2.0.0_beta2 (Aug 27 2017)slong2fs.asm       2017-9-12  18:09:58          PAGE  1


LOC  OBJECT CODE     LINE SOURCE TEXT
  VALUE

                      00001 ;--------------------------------------------------------
                      00002 ; File Created by SN-SDCC : SinoMCU ANSI-C Compiler
                      00003 ; Version 1.0.0 (Sep 11 2017) (MINGW32)
                      00004 ; This file was generated Tue Sep 12 18:09:58 2017
                      00005 ;--------------------------------------------------------
                      00006 ; MC30/MC32 port for the RISC core
                      00007 ;--------------------------------------------------------
                      00008 ;       .file   "../libsdcc/slong2fs.c"
                      00009         list    p=3264
                      00010         radix dec
                      00011         include "3264.inc"
                      00001                 LIST
                      00002 ;mc32p64.inc    Standard Header File, Version 1.00 by Sinomcu
                      00374                 LIST
                      00012 ;--------------------------------------------------------
                      00013 ; external declarations
                      00014 ;--------------------------------------------------------
                      00015         extern  ___uchar2fs
                      00016         extern  ___schar2fs
                      00017         extern  ___uint2fs
                      00018         extern  ___sint2fs
                      00019         extern  ___ulong2fs
                      00020         extern  ___fs2uchar
                      00021         extern  ___fs2schar
                      00022         extern  ___fs2uint
                      00023         extern  ___fs2sint
                      00024         extern  ___fs2ulong
                      00025         extern  ___fs2slong
                      00026         extern  ___fsadd
                      00027         extern  ___fssub
                      00028         extern  ___fsmul
                      00029         extern  ___fsdiv
                      00030         extern  ___fslt
                      00031         extern  ___fseq
                      00032         extern  ___fsneq
                      00033         extern  ___fsgt
                      00034 
                      00035         extern PSAVE
                      00036         extern SSAVE
                      00037         extern WSAVE
                      00038         extern STK12
                      00039         extern STK11
                      00040         extern STK10
                      00041         extern STK09
                      00042         extern STK08
                      00043         extern STK07
                      00044         extern STK06
                      00045         extern STK05
                      00046         extern STK04
                      00047         extern STK03
                      00048         extern STK02
                      00049         extern STK01
                      00050         extern STK00
                      00051 ;--------------------------------------------------------
                      00052 ; global declarations
                      00053 ;--------------------------------------------------------
                      00054         global  ___slong2fs
                      00055 
                      00056 ;--------------------------------------------------------
                      00057 ; global definitions
                      00058 ;--------------------------------------------------------
                      00059 ;--------------------------------------------------------
                      00060 ; absolute symbol definitions
                      00061 ;--------------------------------------------------------
                      00062 ;--------------------------------------------------------
                      00063 ; compiler-defined variables
                      00064 ;--------------------------------------------------------
                      00065 UDL_slong2fs_0  udata
0000                  00066 r0x1003 res     1
0000                  00067 r0x1002 res     1
0001                  00068 r0x1001 res     1
0001                  00069 r0x1000 res     1
0002                  00070 r0x1004 res     1
0002                  00071 r0x1005 res     1
0003                  00072 r0x1006 res     1
0003                  00073 r0x1007 res     1
                      00074 ;--------------------------------------------------------
                      00075 ; initialized data
                      00076 ;--------------------------------------------------------
                      00077 
                      00078 ;@Allocation info for local variables in function '__slong2fs'
                      00079 ;@__slong2fs __uchar2fs                Allocated to registers ;size:2
                      00080 ;@__slong2fs __schar2fs                Allocated to registers ;size:2
                      00081 ;@__slong2fs __uint2fs                 Allocated to registers ;size:2
                      00082 ;@__slong2fs __sint2fs                 Allocated to registers ;size:2
                      00083 ;@__slong2fs __ulong2fs                Allocated to registers ;size:2
                      00084 ;@__slong2fs __fs2uchar                Allocated to registers ;size:2
                      00085 ;@__slong2fs __fs2schar                Allocated to registers ;size:2
                      00086 ;@__slong2fs __fs2uint                 Allocated to registers ;size:2
                      00087 ;@__slong2fs __fs2sint                 Allocated to registers ;size:2
                      00088 ;@__slong2fs __fs2ulong                Allocated to registers ;size:2
                      00089 ;@__slong2fs __fs2slong                Allocated to registers ;size:2
                      00090 ;@__slong2fs __fsadd                   Allocated to registers ;size:2
                      00091 ;@__slong2fs __fssub                   Allocated to registers ;size:2
                      00092 ;@__slong2fs __fsmul                   Allocated to registers ;size:2
                      00093 ;@__slong2fs __fsdiv                   Allocated to registers ;size:2
                      00094 ;@__slong2fs __fslt                    Allocated to registers ;size:2
                      00095 ;@__slong2fs __fseq                    Allocated to registers ;size:2
                      00096 ;@__slong2fs __fsneq                   Allocated to registers ;size:2
                      00097 ;@__slong2fs __fsgt                    Allocated to registers ;size:2
                      00098 ;@__slong2fs sl                        Allocated to registers r0x1003 r0x1002 r0x1001 r0x1000 ;size:4
                      00099 ;@end Allocation info for local variables in function '__slong2fs';
                      00100 
                      00101 ;--------------------------------------------------------
                      00102 ; overlayable items in internal ram 
                      00103 ;--------------------------------------------------------
                      00104 ;       udata_ovr
                      00105 ;--------------------------------------------------------
                      00106 ; code
                      00107 ;--------------------------------------------------------
                      00108 code_slong2fs   code
                      00109 ;***
                      00110 ;  pBlock Stats: dbName = C
                      00111 ;***
                      00112 ;entry:  ___slong2fs    ;Function start
                      00113 ; 2 exit points
                      00114 ;has an exit
                      00115 ;functions called:
                      00116 ;   ___ulong2fs
                      00117 ;   ___ulong2fs
                      00118 ;   ___ulong2fs
                      00119 ;   ___ulong2fs
                      00120 ;11 compiler assigned registers:
                      00121 ;   r0x1000
                      00122 ;   STK00
                      00123 ;   r0x1001
                      00124 ;   STK01
                      00125 ;   r0x1002
                      00126 ;   STK02
                      00127 ;   r0x1003
                      00128 ;   r0x1004
                      00129 ;   r0x1005
                      00130 ;   r0x1006
                      00131 ;   r0x1007
                      00132 ;; Starting pCode block
                      00133 ;;[ICODE] ../libsdcc/slong2fs.c:33:  _entry($5) :
                      00134 ;;[ICODE] ../libsdcc/slong2fs.c:33:     proc ___slong2fs [k1 lr0:0 so:0]{ ia0 a2p0 re0 rm0 nos0 ru0 dp0}{float function ( long-int fixed) fixed}
0000                  00135 ___slong2fs     ;Function start
                      00136 ; 2 exit points
                      00137 ;;[ICODE] ../libsdcc/slong2fs.c:33: iTemp0 [k2 lr3:12 so:0]{ ia0 a2p0 re1 rm0 nos0 ru0 dp0}{long-int fixed}{ sir@ ___slong2fs_sl_1_21}[r0x1000 r0x1001 r0x1002 r0x1003 ] = recv ___slong2fs [k1 lr0:0 so:0]{ ia0 a2p0 re0 rm0 nos0 ru0 dp0}{float function ( long-int fixed) fixed}
                      00138 ;       .line   33; "../libsdcc/slong2fs.c"     float __slong2fs (signed long sl) _FS_REENTRANT
0000   5600           00139         MOVRA   r0x1000
0001   5800           00140         MOVAR   STK00
0002   5600           00141         MOVRA   r0x1001
0003   5800           00142         MOVAR   STK01
0004   5600           00143         MOVRA   r0x1002
0005   5800           00144         MOVAR   STK02
0006   5600           00145         MOVRA   r0x1003
                      00146 ;;[ICODE] ../libsdcc/slong2fs.c:35:     iTemp1 [k4 lr4:5 so:0]{ ia0 a2p0 re0 rm0 nos0 ru0 dp0}{char fixed} = iTemp0 [k2 lr3:12 so:0]{ ia0 a2p0 re1 rm0 nos0 ru0 dp0}{long-int fixed}{ sir@ ___slong2fs_sl_1_21}[r0x1000 r0x1001 r0x1002 r0x1003 ] < 0x0 {long-int literal}
                      00147 ;;signed compare: left < lit(0x0=0), size=4, mask=ffffffff
                      00148 ;       .line   35; "../libsdcc/slong2fs.c"     if (sl<0) 
0007   C1B7           00149         BSET    STATUS,0
0008   EE00           00150         JBSET   r0x1000,7
0009   D1B7           00151         BCLR    STATUS,0
000A   E1B7           00152         JBSET   STATUS,0
000B   A000           00153         GOTO    _00106_DS_
                      00154 ;;genSkipc:3192: created from rifx:00CC608C
                      00155 ;;[ICODE] ../libsdcc/slong2fs.c:35:     if iTemp1 [k4 lr4:5 so:0]{ ia0 a2p0 re0 rm0 nos0 ru0 dp0}{char fixed} == 0 goto _iffalse_0($2)
                      00156 ;;[ICODE] ../libsdcc/slong2fs.c:36:     iTemp2 [k6 lr6:7 so:0]{ ia0 a2p0 re0 rm0 nos0 ru1 dp0}{long-int fixed}[r0x1004 r0x1005 r0x1006 r0x1007 ] = - iTemp0 [k2 lr3:12 so:0]{ ia0 a2p0 re1 rm0 nos0 ru0 dp0}{long-int fixed}{ sir@ ___slong2fs_sl_1_21}[r0x1000 r0x1001 r0x1002 r0x1003 ]
                      00157 ;       .line   36; "../libsdcc/slong2fs.c"     return -__ulong2fs(-sl);
000C   7000           00158         COMAR   r0x1003
000D   5600           00159         MOVRA   r0x1004
000E   7000           00160         COMAR   r0x1002
000F   5600           00161         MOVRA   r0x1005
0010   7000           00162         COMAR   r0x1001
0011   5600           00163         MOVRA   r0x1006
0012   7000           00164         COMAR   r0x1000
0013   5600           00165         MOVRA   r0x1007
0014   6600           00166         INCR    r0x1004
0015   F5B7           00167         JBCLR   STATUS,2
0016   6600           00168         INCR    r0x1005
0017   F5B7           00169         JBCLR   STATUS,2
0018   6600           00170         INCR    r0x1006
0019   F5B7           00171         JBCLR   STATUS,2
001A   6600           00172         INCR    r0x1007
                      00173 ;;[ICODE] ../libsdcc/slong2fs.c:36:     send iTemp2 [k6 lr6:7 so:0]{ ia0 a2p0 re0 rm0 nos0 ru1 dp0}{long-int fixed}[r0x1004 r0x1005 r0x1006 r0x1007 ]{argreg = 1}
                      00174 ;;[ICODE] ../libsdcc/slong2fs.c:36:     iTemp3 [k8 lr8:9 so:0]{ ia0 a2p0 re0 rm0 nos0 ru0 dp0}{float fixed}[r0x1004 r0x1005 r0x1006 r0x1007 ] = call ___ulong2fs [k5 lr0:0 so:0]{ ia0 a2p0 re0 rm0 nos0 ru0 dp0}{float function ( unsigned-long-int fixed) fixed}
001B   5800           00175         MOVAR   r0x1004
001C   5600           00176         MOVRA   STK02
001D   5800           00177         MOVAR   r0x1005
001E   5600           00178         MOVRA   STK01
001F   5800           00179         MOVAR   r0x1006
0020   5600           00180         MOVRA   STK00
0021   5800           00181         MOVAR   r0x1007
0022   8000           00182         CALL    ___ulong2fs
0023   5600           00183         MOVRA   r0x1007
0024   5800           00184         MOVAR   STK00
0025   5600           00185         MOVRA   r0x1006
0026   5800           00186         MOVAR   STK01
0027   5600           00187         MOVRA   r0x1005
0028   5800           00188         MOVAR   STK02
0029   5600           00189         MOVRA   r0x1004
                      00190 ;;[ICODE] ../libsdcc/slong2fs.c:36:     iTemp4 [k9 lr9:10 so:0]{ ia0 a2p0 re0 rm0 nos0 ru1 dp0}{float fixed}[r0x1004 r0x1005 r0x1006 r0x1007 ] = - iTemp3 [k8 lr8:9 so:0]{ ia0 a2p0 re0 rm0 nos0 ru0 dp0}{float fixed}[r0x1004 r0x1005 r0x1006 r0x1007 ]
002A   5800           00191         MOVAR   r0x1007
002B   3980           00192         XORAI   0x80
002C   5600           00193         MOVRA   r0x1007
002D   5800           00194         MOVAR   r0x1006
002E   5600           00195         MOVRA   r0x1006
002F   5800           00196         MOVAR   r0x1005
0030   5600           00197         MOVRA   r0x1005
0031   5800           00198         MOVAR   r0x1004
0032   5600           00199         MOVRA   r0x1004
                      00200 ;;[ICODE] ../libsdcc/slong2fs.c:36:     ret iTemp4 [k9 lr9:10 so:0]{ ia0 a2p0 re0 rm0 nos0 ru1 dp0}{float fixed}[r0x1004 r0x1005 r0x1006 r0x1007 ]
0033   5800           00201         MOVAR   r0x1004
0034   5600           00202         MOVRA   STK02
0035   5800           00203         MOVAR   r0x1005
0036   5600           00204         MOVRA   STK01
0037   5800           00205         MOVAR   r0x1006
0038   5600           00206         MOVRA   STK00
0039   5800           00207         MOVAR   r0x1007
003A   A000           00208         GOTO    _00108_DS_
                      00209 ;;[ICODE] ../libsdcc/slong2fs.c:36:  _iffalse_0($2) :
                      00210 ;;[ICODE] ../libsdcc/slong2fs.c:38:     send iTemp0 [k2 lr3:12 so:0]{ ia0 a2p0 re1 rm0 nos0 ru0 dp0}{long-int fixed}{ sir@ ___slong2fs_sl_1_21}[r0x1000 r0x1001 r0x1002 r0x1003 ]{argreg = 1}
                      00211 ;;[ICODE] ../libsdcc/slong2fs.c:38:     iTemp5 [k10 lr13:14 so:0]{ ia0 a2p0 re0 rm0 nos0 ru1 dp0}{float fixed}[r0x1000 r0x1001 r0x1002 r0x1003 ] = call ___ulong2fs [k5 lr0:0 so:0]{ ia0 a2p0 re0 rm0 nos0 ru0 dp0}{float function ( unsigned-long-int fixed) fixed}
003B                  00212 _00106_DS_
                      00213 ;       .line   38; "../libsdcc/slong2fs.c"     return __ulong2fs(sl);
003B   5800           00214         MOVAR   r0x1003
003C   5600           00215         MOVRA   STK02
003D   5800           00216         MOVAR   r0x1002
003E   5600           00217         MOVRA   STK01
003F   5800           00218         MOVAR   r0x1001
0040   5600           00219         MOVRA   STK00
0041   5800           00220         MOVAR   r0x1000
0042   8000           00221         CALL    ___ulong2fs
0043   5600           00222         MOVRA   r0x1000
0044   5800           00223         MOVAR   STK00
0045   5600           00224         MOVRA   r0x1001
0046   5800           00225         MOVAR   STK01
0047   5600           00226         MOVRA   r0x1002
0048   5800           00227         MOVAR   STK02
0049   5600           00228         MOVRA   r0x1003
                      00229 ;;[ICODE] ../libsdcc/slong2fs.c:38:     ret iTemp5 [k10 lr13:14 so:0]{ ia0 a2p0 re0 rm0 nos0 ru1 dp0}{float fixed}[r0x1000 r0x1001 r0x1002 r0x1003 ]
004A   5800           00230         MOVAR   r0x1003
004B   5600           00231         MOVRA   STK02
004C   5800           00232         MOVAR   r0x1002
004D   5600           00233         MOVRA   STK01
004E   5800           00234         MOVAR   r0x1001
004F   5600           00235         MOVRA   STK00
0050   5800           00236         MOVAR   r0x1000
                      00237 ;;[ICODE] ../libsdcc/slong2fs.c:38:  _return($4) :
                      00238 ;;[ICODE] ../libsdcc/slong2fs.c:38:     eproc ___slong2fs [k1 lr0:0 so:0]{ ia0 a2p0 re0 rm0 nos0 ru0 dp0}{float function ( long-int fixed) fixed}
0051                  00239 _00108_DS_
0051   000C           00240         RETURN  
                      00241 ; exit point of ___slong2fs
                      00242 
                      00243 
                      00244 ;       code size estimation:
                      00245 ;          82+    0 =    82 instructions (  164 byte)
                      00246 
                      00247         end
gpasm-2.0.0_beta2 (Aug 27 2017)slong2fs.asm       2017-9-12  18:09:58          PAGE  2


SYMBOL TABLE
  LABEL                             VALUE

ADCR0                             000001EC
ADCR1                             000001ED
ADEOC                             00000001
ADIE                              00000006
ADIF                              00000006
ADIOS0                            00000000
ADIOS1                            00000001
ADIOS3                            00000003
ADIOS4                            00000004
ADIOS5                            00000005
ADIOS7                            00000007
ADOIS2                            00000002
ADOIS6                            00000006
ADON                              00000000
ADRH                              000001EE
ADRL                              000001EF
BUZ0OE                            00000005
BUZ1OE                            00000005
C                                 00000000
CLKS                              00000002
DC                                00000001
FSR                               000001B4
FSR0                              000001B4
FSR1                              000001B5
GIE                               00000007
HAAS                              00000006
HBB                               00000005
HCF                               00000007
HEN                               00000001
HFEN                              00000000
HIBYTE                            000001B3
HTX                               00000004
I2CADDR                           000001F1
I2CCR                             000001F0
I2CDATA                           000001F2
I2CIE                             00000005
I2CIF                             00000005
INDF                              000001B0
INDF0                             000001B0
INDF1                             000001B1
INDF2                             000001B2
INDF3                             000001B9
INT0IE                            00000002
INT0IF                            00000002
INT1IE                            00000003
INT1IF                            00000003
INTE                              000001BA
INTF                              000001BB
IOP0                              000001C0
IOP1                              000001C4
IOP2                              000001C8
IOP3                              000001CC
LFEN                              00000001
MCR                               000001B8
OEP0                              000001C1
OEP1                              000001C5
OEP2                              000001C9
OEP3                              000001CD
OSCM                              000001BC
P00                               00000000
P00OE                             00000000
P00PU                             00000000
P01                               00000001
P01OE                             00000001
P01PU                             00000001
P02                               00000002
P02OE                             00000002
P02PU                             00000002
P03                               00000003
P03OE                             00000003
P03PU                             00000003
P04                               00000004
P04OE                             00000004
P04PU                             00000004
P05                               00000005
P05OE                             00000005
P05PU                             00000005
P06                               00000006
P06OE                             00000006
P07                               00000007
P07OE                             00000007
P10                               00000000
P10OE                             00000000
P10PU                             00000000
P11                               00000001
P11OE                             00000001
P11PU                             00000001
P12                               00000002
P12OE                             00000002
P12PU                             00000002
P13                               00000003
P13OE                             00000003
P13PU                             00000003
P14                               00000004
P14OE                             00000004
P14PU                             00000004
P15                               00000005
P15OE                             00000005
P15PU                             00000005
P16                               00000006
P16OE                             00000006
P16PU                             00000006
P17                               00000007
P17OE                             00000007
P17PU                             00000007
P20                               00000000
P20OE                             00000000
P20PU                             00000000
P21                               00000001
P21OE                             00000001
P21PU                             00000001
P22                               00000002
P22OE                             00000002
P22PU                             00000002
P23                               00000003
P23OE                             00000003
P23PU                             00000003
P24                               00000004
P24OE                             00000004
P24PU                             00000004
P25                               00000005
P25OE                             00000005
P25PU                             00000005
P26                               00000006
P26OE                             00000006
P26PU                             00000006
P27                               00000007
P27OE                             00000007
P27PU                             00000007
P30                               00000000
P30OE                             00000000
P30PU                             00000000
P31                               00000001
P31OE                             00000001
P31PU                             00000001
PCL                               000001B6
PD                                00000004
PSAVE                             00000000
PUP0                              000001C2
PUP1                              000001C6
PUP2                              000001CA
PUP3                              000001CE
PWM0OE                            00000006
PWM1OE                            00000006
RXAK                              00000000
SRW                               00000002
SSAVE                             00000000
STATUS                            000001B7
STBH                              00000004
STBL                              00000005
STK00                             00000000
STK01                             00000000
STK02                             00000000
STK03                             00000000
STK04                             00000000
STK05                             00000000
STK06                             00000000
STK07                             00000000
STK08                             00000000
STK09                             00000000
STK10                             00000000
STK11                             00000000
STK12                             00000000
T0CNT                             000001D1
T0CR                              000001D0
T0DATA                            000001D3
T0IE                              00000000
T0IF                              00000000
T0LOAD                            000001D2
T1CNT                             000001D5
T1CR                              000001D4
T1DATA                            000001D7
T1IE                              00000001
T1IF                              00000001
T1LOAD                            000001D6
T2CNTH                            000001D9
T2CNTL                            000001DA
T2CR                              000001D8
T2IE                              00000004
T2IF                              00000004
T2LOADH                           000001DB
T2LOADL                           000001DC
T2MOD                             00000005
TC0EN                             00000007
TC1EN                             00000007
TC2EN                             00000007
TK0CLR                            00000003
TK0CNTH                           000001E2
TK0CNTL                           000001E3
TK0CRH                            000001E0
TK0CRL                            000001E1
TK0IE                             00000006
TK0IF                             00000007
TK0JE                             00000005
TK0RCE                            00000004
TK1CLR                            00000003
TK1CNTH                           000001E6
TK1CNTL                           000001E7
TK1CRH                            000001E4
TK1CRL                            000001E5
TK1IE                             00000006
TK1IF                             00000007
TK1JE                             00000005
TK1RCE                            00000004
TK2CLR                            00000003
TK2CNTH                           000001EA
TK2CNTL                           000001EB
TK2CRH                            000001E8
TK2CRL                            000001E9
TK2IE                             00000006
TK2IF                             00000007
TK2JE                             00000005
TK2RCE                            00000004
TO                                00000005
TXAK                              00000003
WSAVE                             00000000
Z                                 00000002
_00106_DS_                        0000003B
_00108_DS_                        00000051
_CONFIG0                          00008000
_CONFIG1                          00008001
_CP_ALL                           00007FFF
_FCPU_128T                        0000FFEF
_FCPU_16T                         0000FFBF
_FCPU_256T                        0000FFFF
_FCPU_2T                          0000FF8F
_FCPU_32T                         0000FFCF
_FCPU_4T                          0000FF9F
_FCPU_64T                         0000FFDF
_FCPU_8T                          0000FFAF
_HRC_LRC                          0000FCFF
_HRC_LXT                          0000FDFF
_HXT_LRC                          0000FEFF
_MCLR_OFF                         0000FF7F
_MCLR_ON                          0000FFFF
_PTWRT_16_1024                    0000FFF7
_PTWRT_16_16                      0000DFF7
_PTWRT_256_256                    0000DFFF
_PTWRT_256_4096                   0000FFFF
_PTWRT_4_4                        0000DFF3
_PTWRT_4_512                      0000FFF3
_PTWRT_64_2048                    0000FFFB
_PTWRT_64_64                      0000DFFB
_VLVR_160                         0000E3FF
_VLVR_185                         0000E7FF
_VLVR_205                         0000EBFF
_VLVR_218                         0000EFFF
_VLVR_232                         0000F3FF
_VLVR_245                         0000F7FF
_VLVR_305                         0000FBFF
_VLVR_360                         0000FFFF
_WDT_ALWAYS_OFF                   0000FFFC
_WDT_ALWAYS_ON                    0000FFFF
_WDT_SLEEP_OFF                    0000FFFD
__32P64                           00000001
___fs2schar                       00000000
___fs2sint                        00000000
___fs2slong                       00000000
___fs2uchar                       00000000
___fs2uint                        00000000
___fs2ulong                       00000000
___fsadd                          00000000
___fsdiv                          00000000
___fseq                           00000000
___fsgt                           00000000
___fslt                           00000000
___fsmul                          00000000
___fsneq                          00000000
___fssub                          00000000
___schar2fs                       00000000
___sint2fs                        00000000
___slong2fs                       00000000
___uchar2fs                       00000000
___uint2fs                        00000000
___ulong2fs                       00000000
r0x1000                           00000003
r0x1001                           00000002
r0x1002                           00000001
r0x1003                           00000000
r0x1004                           00000004
r0x1005                           00000005
r0x1006                           00000006
r0x1007                           00000007

Errors   :     0
Warnings :     0 reported,     0 suppressed
Messages :     0 reported,     0 suppressed

